ccopy_reg
_reconstructor
p1
(cnesteddict
nesteddict
p2
c__builtin__
dict
p3
(dp4
S'CITo2E'
p5
g1
(g2
g3
(dp6
S'M300'
p7
g1
(g2
g3
(dp8
S'Lam10'
p9
g1
(g2
g3
(dp10
S'Des'
p11
g1
(g2
g3
(dp12
S'LL'
p13
g1
(g2
g3
(dp14
S'minCut'
p15
F300
sS'xsec'
p16
(F0.55320000000000003
F0.0013649999999999999
S'pb'
tp17
sS'maxCut'
p18
F800
sS'cutEfficiency'
p19
(I42400
I7600
tp20
stRp21
sS'LR'
p22
g1
(g2
g3
(dp23
S'minCut'
p24
F300
sg16
(F0.57840000000000003
F0.0014170000000000001
S'pb'
tp25
sS'maxCut'
p26
F800
sg19
(I41033
I8967
tp27
stRp28
sS'RR'
p29
g1
(g2
g3
(dp30
S'minCut'
p31
F300
sg16
(F0.54910000000000003
F0.001353
S'pb'
tp32
sS'maxCut'
p33
F800
sg19
(I42228
I7772
tp34
stRp35
stRp36
sS'Con'
p37
g1
(g2
g3
(dp38
S'LL'
p39
g1
(g2
g3
(dp40
S'minCut'
p41
F300
sg16
(F0.63360000000000005
F0.0015629999999999999
S'pb'
tp42
sS'maxCut'
p43
F800
sg19
(I41939
I8061
tp44
stRp45
sS'LR'
p46
g1
(g2
g3
(dp47
S'minCut'
p48
F300
sg16
(F0.68000000000000005
F0.001573
S'pb'
tp49
sS'maxCut'
p50
F800
sg19
(I41070
I8930
tp51
stRp52
sS'RR'
p53
g1
(g2
g3
(dp54
S'minCut'
p55
F300
sg16
(F0.63690000000000002
F0.0015709999999999999
S'pb'
tp56
sS'maxCut'
p57
F800
sg19
(I41873
I8127
tp58
stRp59
stRp60
stRp61
sS'Lam100k'
p62
g1
(g2
g3
(dp63
S'Des'
p64
g1
(g2
g3
(dp65
S'LL'
p66
g1
(g2
g3
(dp67
S'minCut'
p68
F300
sg16
(F0.55689999999999995
F0.001395
S'pb'
tp69
sS'maxCut'
p70
F800
sg19
(I43328
I6672
tp71
stRp72
sS'LR'
p73
g1
(g2
g3
(dp74
S'minCut'
p75
F300
sg16
(F0.56220000000000003
F0.001415
S'pb'
tp76
sS'maxCut'
p77
F800
sg19
(I43331
I6669
tp78
stRp79
sS'RR'
p80
g1
(g2
g3
(dp81
S'minCut'
p82
F300
sg16
(F0.55720000000000003
F0.0013960000000000001
S'pb'
tp83
sS'maxCut'
p84
F800
sg19
(I43333
I6667
tp85
stRp86
stRp87
sS'Con'
p88
g1
(g2
g3
(dp89
S'LL'
p90
g1
(g2
g3
(dp91
S'minCut'
p92
F300
sg16
(F0.55759999999999998
F0.001395
S'pb'
tp93
sS'maxCut'
p94
F800
sg19
(I43306
I6694
tp95
stRp96
sS'LR'
p97
g1
(g2
g3
(dp98
S'minCut'
p99
F300
sg16
(F0.55789999999999995
F0.0013979999999999999
S'pb'
tp100
sS'maxCut'
p101
F800
sg19
(I43432
I6568
tp102
stRp103
sS'RR'
p104
g1
(g2
g3
(dp105
S'minCut'
p106
F300
sg16
(F0.55549999999999999
F0.001392
S'pb'
tp107
sS'maxCut'
p108
F800
sg19
(I43312
I6688
tp109
stRp110
stRp111
stRp112
sS'Lam1'
p113
g1
(g2
g3
(dp114
S'Des'
p115
g1
(g2
g3
(dp116
S'LL'
p117
g1
(g2
g3
(dp118
S'minCut'
p119
F300
sg16
(F365.80000000000001
F0.94230000000000003
S'pb'
tp120
sS'maxCut'
p121
F800
sg19
(I20972
I27224
tp122
stRp123
sS'LR'
p124
g1
(g2
g3
(dp125
S'minCut'
p126
F300
sg16
(F736.10000000000002
F1.893
S'pb'
tp127
sS'maxCut'
p128
F800
sg19
(I21275
I27186
tp129
stRp130
sS'RR'
p131
g1
(g2
g3
(dp132
S'minCut'
p133
F300
sg16
(F366
F0.95040000000000002
S'pb'
tp134
sS'maxCut'
p135
F800
sg19
(I21095
I26841
tp136
stRp137
stRp138
sS'Con'
p139
g1
(g2
g3
(dp140
S'LL'
p141
g1
(g2
g3
(dp142
S'minCut'
p143
F300
sg16
(F373
F0.94320000000000004
S'pb'
tp144
sS'maxCut'
p145
F800
sg19
(I22386
I27614
tp146
stRp147
sS'RR'
p148
g1
(g2
g3
(dp149
S'minCut'
p150
F300
sg16
(F373.39999999999998
F0.94530000000000003
S'pb'
tp151
sS'maxCut'
p152
F800
sg19
(I22256
I27372
tp153
stRp154
stRp155
stRp156
sS'Lam16'
p157
g1
(g2
g3
(dp158
S'Des'
p159
g1
(g2
g3
(dp160
S'LL'
p161
g1
(g2
g3
(dp162
S'minCut'
p163
F300
sg16
(F0.54759999999999998
F0.0013699999999999999
S'pb'
tp164
sS'maxCut'
p165
F800
sg19
(I43083
I6521
tp166
stRp167
sS'LR'
p168
g1
(g2
g3
(dp169
S'minCut'
p170
F300
sg16
(F0.54990000000000006
F0.00139
S'pb'
tp171
sS'maxCut'
p172
F800
sg19
(I42576
I6798
tp173
stRp174
sS'RR'
p175
g1
(g2
g3
(dp176
S'minCut'
p177
F300
sg16
(F0.54620000000000002
F0.001369
S'pb'
tp178
sS'maxCut'
p179
F800
sg19
(I43236
I6453
tp180
stRp181
stRp182
sS'Con'
p183
g1
(g2
g3
(dp184
S'LL'
p185
g1
(g2
g3
(dp186
S'minCut'
p187
F300
sg16
(F0.57850000000000001
F0.001456
S'pb'
tp188
sS'maxCut'
p189
F800
sg19
(I42331
I6708
tp190
stRp191
sS'LR'
p192
g1
(g2
g3
(dp193
S'minCut'
p194
F300
sg16
(F0.5897
F0.001446
S'pb'
tp195
sS'maxCut'
p196
F800
sg19
(I43046
I6954
tp197
stRp198
sS'RR'
p199
g1
(g2
g3
(dp200
S'minCut'
p201
F300
sg16
(F0.58599999999999997
F0.001459
S'pb'
tp202
sS'maxCut'
p203
F800
sg19
(I43275
I6725
tp204
stRp205
stRp206
stRp207
sS'Lam28'
p208
g1
(g2
g3
(dp209
S'Des'
p210
g1
(g2
g3
(dp211
S'LL'
p212
g1
(g2
g3
(dp213
S'minCut'
p214
F300
sg16
(F0.55189999999999995
F0.001384
S'pb'
tp215
sS'maxCut'
p216
F800
sg19
(I43607
I6393
tp217
stRp218
sS'LR'
p219
g1
(g2
g3
(dp220
S'minCut'
p221
F300
sg16
(F0.55349999999999999
F0.0013860000000000001
S'pb'
tp222
sS'maxCut'
p223
F800
sg19
(I43473
I6527
tp224
stRp225
sS'RR'
p226
g1
(g2
g3
(dp227
S'minCut'
p228
F300
sg16
(F0.55520000000000003
F0.0013879999999999999
S'pb'
tp229
sS'maxCut'
p230
F800
sg19
(I43534
I6466
tp231
stRp232
stRp233
sS'Con'
p234
g1
(g2
g3
(dp235
S'LL'
p236
g1
(g2
g3
(dp237
S'minCut'
p238
F300
sg16
(F0.56399999999999995
F0.001413
S'pb'
tp239
sS'maxCut'
p240
F800
sg19
(I43531
I6469
tp241
stRp242
sS'LR'
p243
g1
(g2
g3
(dp244
S'minCut'
p245
F300
sg16
(F0.56710000000000005
F0.00141
S'pb'
tp246
sS'maxCut'
p247
F800
sg19
(I43488
I6512
tp248
stRp249
sS'RR'
p250
g1
(g2
g3
(dp251
S'minCut'
p252
F300
sg16
(F0.56579999999999997
F0.001415
S'pb'
tp253
sS'maxCut'
p254
F800
sg19
(I43569
I6431
tp255
stRp256
stRp257
stRp258
sS'Lam22'
p259
g1
(g2
g3
(dp260
S'Des'
p261
g1
(g2
g3
(dp262
S'LL'
p263
g1
(g2
g3
(dp264
S'minCut'
p265
F300
sg16
(F0.55179999999999996
F0.0013799999999999999
S'pb'
tp266
sS'maxCut'
p267
F800
sg19
(I43561
I6439
tp268
stRp269
sS'LR'
p270
g1
(g2
g3
(dp271
S'minCut'
p272
F300
sg16
(F0.55320000000000003
F0.001395
S'pb'
tp273
sS'maxCut'
p274
F800
sg19
(I43447
I6553
tp275
stRp276
sS'RR'
p277
g1
(g2
g3
(dp278
S'minCut'
p279
F300
sg16
(F0.55300000000000005
F0.001384
S'pb'
tp280
sS'maxCut'
p281
F800
sg19
(I43416
I6584
tp282
stRp283
stRp284
sS'Con'
p285
g1
(g2
g3
(dp286
S'LL'
p287
g1
(g2
g3
(dp288
S'minCut'
p289
F300
sg16
(F0.56899999999999995
F0.0014289999999999999
S'pb'
tp290
sS'maxCut'
p291
F800
sg19
(I42676
I6574
tp292
stRp293
sS'LR'
p294
g1
(g2
g3
(dp295
S'minCut'
p296
F300
sg16
(F0.57140000000000002
F0.0014139999999999999
S'pb'
tp297
sS'maxCut'
p298
F800
sg19
(I43341
I6659
tp299
stRp300
sS'RR'
p301
g1
(g2
g3
(dp302
S'minCut'
p303
F300
sg16
(F0.57030000000000003
F0.0014400000000000001
S'pb'
tp304
sS'maxCut'
p305
F800
sg19
(I42748
I6573
tp306
stRp307
stRp308
stRp309
sS'Lam34'
p310
g1
(g2
g3
(dp311
S'Des'
p312
g1
(g2
g3
(dp313
S'LL'
p314
g1
(g2
g3
(dp315
S'minCut'
p316
F300
sg16
(F0.55549999999999999
F0.001397
S'pb'
tp317
sS'maxCut'
p318
F800
sg19
(I43030
I6331
tp319
stRp320
sS'LR'
p321
g1
(g2
g3
(dp322
S'minCut'
p323
F300
sg16
(F0.55689999999999995
F0.0013990000000000001
S'pb'
tp324
sS'maxCut'
p325
F800
sg19
(I43593
I6407
tp326
stRp327
sS'RR'
p328
g1
(g2
g3
(dp329
S'minCut'
p330
F300
sg16
(F0.55269999999999997
F0.001384
S'pb'
tp331
sS'maxCut'
p332
F800
sg19
(I43664
I6336
tp333
stRp334
stRp335
sS'Con'
p336
g1
(g2
g3
(dp337
S'LL'
p338
g1
(g2
g3
(dp339
S'minCut'
p340
F300
sg16
(F0.5635
F0.0014139999999999999
S'pb'
tp341
sS'maxCut'
p342
F800
sg19
(I43523
I6477
tp343
stRp344
sS'LR'
p345
g1
(g2
g3
(dp346
S'minCut'
p347
F300
sg16
(F0.56389999999999996
F0.0014009999999999999
S'pb'
tp348
sS'maxCut'
p349
F800
sg19
(I43468
I6532
tp350
stRp351
sS'RR'
p352
g1
(g2
g3
(dp353
S'minCut'
p354
F300
sg16
(F0.56340000000000001
F0.0014090000000000001
S'pb'
tp355
sS'maxCut'
p356
F800
sg19
(I43428
I6572
tp357
stRp358
stRp359
stRp360
stRp361
sS'M2000'
p362
g1
(g2
g3
(dp363
S'Lam10'
p364
g1
(g2
g3
(dp365
S'Con'
p366
g1
(g2
g3
(dp367
S'LL'
p368
g1
(g2
g3
(dp369
S'minCut'
p370
F2000
sg16
(F0.0052399999999999999
F1.488e-05
S'pb'
tp371
sS'maxCut'
p372
F10000000000
sg19
(I44216
I5784
tp373
stRp374
stRp375
stRp376
sS'Lam100k'
p377
g1
(g2
g3
(dp378
S'Con'
p379
g1
(g2
g3
(dp380
S'LL'
p381
g1
(g2
g3
(dp382
S'minCut'
p383
F2000
sg16
(F0.00015779999999999999
F3.8290000000000002e-07
S'pb'
tp384
sS'maxCut'
p385
F10000000000
sg19
(I42334
I7666
tp386
stRp387
stRp388
stRp389
sS'Lam16'
p390
g1
(g2
g3
(dp391
S'Con'
p392
g1
(g2
g3
(dp393
S'LL'
p394
g1
(g2
g3
(dp395
S'minCut'
p396
F2000
sg16
(F0.001052
F2.9170000000000002e-06
S'pb'
tp397
sS'maxCut'
p398
F10000000000
sg19
(I43432
I5384
tp399
stRp400
stRp401
stRp402
sS'Lam28'
p403
g1
(g2
g3
(dp404
S'Con'
p405
g1
(g2
g3
(dp406
S'LL'
p407
g1
(g2
g3
(dp408
S'minCut'
p409
F2000
sg16
(F0.00029470000000000001
F7.3630000000000005e-07
S'pb'
tp410
sS'maxCut'
p411
F10000000000
sg19
(I43482
I6518
tp412
stRp413
stRp414
stRp415
sS'Lam22'
p416
g1
(g2
g3
(dp417
S'Con'
p418
g1
(g2
g3
(dp419
S'LL'
p420
g1
(g2
g3
(dp421
S'minCut'
p422
F2000
sg16
(F0.0010510000000000001
F2.9079999999999999e-06
S'pb'
tp423
sS'maxCut'
p424
F10000000000
sg19
(I43676
I5511
tp425
stRp426
stRp427
stRp428
sS'Lam34'
p429
g1
(g2
g3
(dp430
S'Con'
p431
g1
(g2
g3
(dp432
S'LL'
p433
g1
(g2
g3
(dp434
S'minCut'
p435
F2000
sg16
(F0.00023560000000000001
F5.8650000000000002e-07
S'pb'
tp436
sS'maxCut'
p437
F10000000000
sg19
(I42386
I6714
tp438
stRp439
stRp440
stRp441
stRp442
sS'M800'
p443
g1
(g2
g3
(dp444
S'Lam10'
p445
g1
(g2
g3
(dp446
S'Des'
p447
g1
(g2
g3
(dp448
S'LL'
p449
g1
(g2
g3
(dp450
S'minCut'
p451
F800
sg16
(F0.02597
F7.0889999999999994e-05
S'pb'
tp452
sS'maxCut'
p453
F1300
sg19
(I27873
I22127
tp454
stRp455
sS'LR'
p456
g1
(g2
g3
(dp457
S'minCut'
p458
F800
sg16
(F0.044650000000000002
F0.0001016
S'pb'
tp459
sS'maxCut'
p460
F1300
sg19
(I24988
I25012
tp461
stRp462
sS'RR'
p463
g1
(g2
g3
(dp464
S'minCut'
p465
F800
sg16
(F0.025909999999999999
F7.0480000000000003e-05
S'pb'
tp466
sS'maxCut'
p467
F1300
sg19
(I27219
I22281
tp468
stRp469
stRp470
sS'Con'
p471
g1
(g2
g3
(dp472
S'LL'
p473
g1
(g2
g3
(dp474
S'minCut'
p475
F800
sg16
(F0.039489999999999997
F0.0001128
S'pb'
tp476
sS'maxCut'
p477
F1300
sg19
(I29184
I20816
tp478
stRp479
sS'LR'
p480
g1
(g2
g3
(dp481
S'minCut'
p482
F800
sg16
(F0.059760000000000001
F0.00014119999999999999
S'pb'
tp483
sS'maxCut'
p484
F1300
sg19
(I26672
I23328
tp485
stRp486
sS'RR'
p487
g1
(g2
g3
(dp488
S'minCut'
p489
F800
sg16
(F0.039550000000000002
F0.0001131
S'pb'
tp490
sS'maxCut'
p491
F1300
sg19
(I29311
I20689
tp492
stRp493
stRp494
stRp495
sS'Lam100k'
p496
g1
(g2
g3
(dp497
S'Des'
p498
g1
(g2
g3
(dp499
S'LL'
p500
g1
(g2
g3
(dp501
S'minCut'
p502
F800
sg16
(F0.01341
F3.4029999999999998e-05
S'pb'
tp503
sS'maxCut'
p504
F1300
sg19
(I38596
I11404
tp505
stRp506
sS'LR'
p507
g1
(g2
g3
(dp508
S'minCut'
p509
F800
sg16
(F0.013469999999999999
F3.4199999999999998e-05
S'pb'
tp510
sS'maxCut'
p511
F1300
sg19
(I38755
I11245
tp512
stRp513
sS'RR'
p514
g1
(g2
g3
(dp515
S'minCut'
p516
F800
sg16
(F0.01345
F3.413e-05
S'pb'
tp517
sS'maxCut'
p518
F1300
sg19
(I38902
I11098
tp519
stRp520
stRp521
sS'Con'
p522
g1
(g2
g3
(dp523
S'LL'
p524
g1
(g2
g3
(dp525
S'minCut'
p526
F800
sg16
(F0.013429999999999999
F3.4140000000000002e-05
S'pb'
tp527
sS'maxCut'
p528
F1300
sg19
(I38731
I11269
tp529
stRp530
sS'LR'
p531
g1
(g2
g3
(dp532
S'minCut'
p533
F800
sg16
(F0.0134
F3.3909999999999999e-05
S'pb'
tp534
sS'maxCut'
p535
F1300
sg19
(I38768
I11232
tp536
stRp537
sS'RR'
p538
g1
(g2
g3
(dp539
S'minCut'
p540
F800
sg16
(F0.01337
F3.383e-05
S'pb'
tp541
sS'maxCut'
p542
F1300
sg19
(I38545
I11455
tp543
stRp544
stRp545
stRp546
sS'Lam1'
p547
g1
(g2
g3
(dp548
S'Des'
p549
g1
(g2
g3
(dp550
S'LL'
p551
g1
(g2
g3
(dp552
S'minCut'
p553
F800
sg16
(F207.5
F0.55689999999999995
S'pb'
tp554
sS'maxCut'
p555
F1300
sg19
(I18844
I25516
tp556
stRp557
sS'LR'
p558
g1
(g2
g3
(dp559
S'minCut'
p560
F800
sg16
(F416.10000000000002
F1.0589999999999999
S'pb'
tp561
sS'maxCut'
p562
F1300
sg19
(I21288
I28364
tp563
stRp564
sS'RR'
p565
g1
(g2
g3
(dp566
S'minCut'
p567
F800
sg16
(F207.59999999999999
F0.52449999999999997
S'pb'
tp568
sS'maxCut'
p569
F1300
sg19
(I21470
I28530
tp570
stRp571
stRp572
sS'Con'
p573
g1
(g2
g3
(dp574
S'LL'
p575
g1
(g2
g3
(dp576
S'minCut'
p577
F800
sg16
(F208.40000000000001
F0.53010000000000002
S'pb'
tp578
sS'maxCut'
p579
F1300
sg19
(I21426
I28184
tp580
stRp581
sS'LR'
p582
g1
(g2
g3
(dp583
S'minCut'
p584
F800
sg16
(F415.89999999999998
F1.0589999999999999
S'pb'
tp585
sS'maxCut'
p586
F1300
sg19
(I21333
I27969
tp587
stRp588
sS'RR'
p589
g1
(g2
g3
(dp590
S'minCut'
p591
F800
sg16
(F209.69999999999999
F0.53139999999999998
S'pb'
tp592
sS'maxCut'
p593
F1300
sg19
(I21441
I28559
tp594
stRp595
stRp596
stRp597
sS'Lam16'
p598
g1
(g2
g3
(dp599
S'Des'
p600
g1
(g2
g3
(dp601
S'LL'
p602
g1
(g2
g3
(dp603
S'minCut'
p604
F800
sg16
(F0.013809999999999999
F3.4980000000000001e-05
S'pb'
tp605
sS'maxCut'
p606
F1300
sg19
(I35337
I13121
tp607
stRp608
sS'LR'
p609
g1
(g2
g3
(dp610
S'minCut'
p611
F800
sg16
(F0.01643
F3.8630000000000001e-05
S'pb'
tp612
sS'maxCut'
p613
F1300
sg19
(I33790
I16210
tp614
stRp615
sS'RR'
p616
g1
(g2
g3
(dp617
S'minCut'
p618
F800
sg16
(F0.013650000000000001
F3.4610000000000002e-05
S'pb'
tp619
sS'maxCut'
p620
F1300
sg19
(I34497
I13199
tp621
stRp622
stRp623
sS'Con'
p624
g1
(g2
g3
(dp625
S'LL'
p626
g1
(g2
g3
(dp627
S'minCut'
p628
F800
sg16
(F0.019
F4.799e-05
S'pb'
tp629
sS'maxCut'
p630
F1300
sg19
(I35350
I14650
tp631
stRp632
sS'LR'
p633
g1
(g2
g3
(dp634
S'minCut'
p635
F800
sg16
(F0.022339999999999999
F5.2240000000000001e-05
S'pb'
tp636
sS'maxCut'
p637
F1300
sg19
(I33548
I16452
tp638
stRp639
sS'RR'
p640
g1
(g2
g3
(dp641
S'minCut'
p642
F800
sg16
(F0.01917
F4.9020000000000002e-05
S'pb'
tp643
sS'maxCut'
p644
F1300
sg19
(I34737
I14525
tp645
stRp646
stRp647
stRp648
sS'Lam28'
p649
g1
(g2
g3
(dp650
S'Des'
p651
g1
(g2
g3
(dp652
S'LL'
p653
g1
(g2
g3
(dp654
S'minCut'
p655
F800
sg16
(F0.012999999999999999
F3.2969999999999998e-05
S'pb'
tp656
sS'maxCut'
p657
F1300
sg19
(I38852
I11148
tp658
stRp659
sS'LR'
p660
g1
(g2
g3
(dp661
S'minCut'
p662
F800
sg16
(F0.01308
F3.3330000000000001e-05
S'pb'
tp663
sS'maxCut'
p664
F1300
sg19
(I38283
I11717
tp665
stRp666
sS'RR'
p667
g1
(g2
g3
(dp668
S'minCut'
p669
F800
sg16
(F0.01286
F3.2620000000000003e-05
S'pb'
tp670
sS'maxCut'
p671
F1300
sg19
(I38810
I11190
tp672
stRp673
stRp674
sS'Con'
p675
g1
(g2
g3
(dp676
S'LL'
p677
g1
(g2
g3
(dp678
S'minCut'
p679
F800
sg16
(F0.014619999999999999
F3.7070000000000003e-05
S'pb'
tp680
sS'maxCut'
p681
F1300
sg19
(I38210
I11790
tp682
stRp683
sS'LR'
p684
g1
(g2
g3
(dp685
S'minCut'
p686
F800
sg16
(F0.01502
F3.6640000000000002e-05
S'pb'
tp687
sS'maxCut'
p688
F1300
sg19
(I37712
I12288
tp689
stRp690
sS'RR'
p691
g1
(g2
g3
(dp692
S'minCut'
p693
F800
sg16
(F0.01465
F4.7649999999999999e-05
S'pb'
tp694
sS'maxCut'
p695
F1300
sg19
(I23046
I7140
tp696
stRp697
stRp698
stRp699
sS'Lam22'
p700
g1
(g2
g3
(dp701
S'Des'
p702
g1
(g2
g3
(dp703
S'LL'
p704
g1
(g2
g3
(dp705
S'minCut'
p706
F800
sg16
(F0.012869999999999999
F3.2610000000000001e-05
S'pb'
tp707
sS'maxCut'
p708
F1300
sg19
(I37966
I11352
tp709
stRp710
sS'LR'
p711
g1
(g2
g3
(dp712
S'minCut'
p713
F800
sg16
(F0.01345
F3.3689999999999998e-05
S'pb'
tp714
sS'maxCut'
p715
F1300
sg19
(I37426
I12574
tp716
stRp717
sS'RR'
p718
g1
(g2
g3
(dp719
S'minCut'
p720
F800
sg16
(F0.012880000000000001
F3.2410000000000003e-05
S'pb'
tp721
sS'maxCut'
p722
F1300
sg19
(I38387
I11613
tp723
stRp724
stRp725
sS'Con'
p726
g1
(g2
g3
(dp727
S'LL'
p728
g1
(g2
g3
(dp729
S'minCut'
p730
F800
sg16
(F0.015599999999999999
F3.9329999999999998e-05
S'pb'
tp731
sS'maxCut'
p732
F1300
sg19
(I37368
I12632
tp733
stRp734
sS'LR'
p735
g1
(g2
g3
(dp736
S'minCut'
p737
F800
sg16
(F0.016639999999999999
F3.9350000000000001e-05
S'pb'
tp738
sS'maxCut'
p739
F1300
sg19
(I36543
I13457
tp740
stRp741
sS'RR'
p742
g1
(g2
g3
(dp743
S'minCut'
p744
F800
sg16
(F0.01575
F3.9820000000000002e-05
S'pb'
tp745
sS'maxCut'
p746
F1300
sg19
(I37362
I12638
tp747
stRp748
stRp749
stRp750
sS'Lam34'
p751
g1
(g2
g3
(dp752
S'Des'
p753
g1
(g2
g3
(dp754
S'LL'
p755
g1
(g2
g3
(dp756
S'minCut'
p757
F800
sg16
(F0.012999999999999999
F3.2960000000000003e-05
S'pb'
tp758
sS'maxCut'
p759
F1300
sg19
(I38861
I11139
tp760
stRp761
sS'LR'
p762
g1
(g2
g3
(dp763
S'minCut'
p764
F800
sg16
(F0.01311
F3.3590000000000002e-05
S'pb'
tp765
sS'maxCut'
p766
F1300
sg19
(I38838
I11162
tp767
stRp768
sS'RR'
p769
g1
(g2
g3
(dp770
S'minCut'
p771
F800
sg16
(F0.012999999999999999
F3.2979999999999999e-05
S'pb'
tp772
sS'maxCut'
p773
F1300
sg19
(I38860
I11140
tp774
stRp775
stRp776
sS'Con'
p777
g1
(g2
g3
(dp778
S'LL'
p779
g1
(g2
g3
(dp780
S'minCut'
p781
F800
sg16
(F0.014189999999999999
F3.6390000000000002e-05
S'pb'
tp782
sS'maxCut'
p783
F1300
sg19
(I37621
I11329
tp784
stRp785
sS'LR'
p786
g1
(g2
g3
(dp787
S'minCut'
p788
F800
sg16
(F0.01443
F3.5719999999999997e-05
S'pb'
tp789
sS'maxCut'
p790
F1300
sg19
(I38205
I11795
tp791
stRp792
sS'RR'
p793
g1
(g2
g3
(dp794
S'minCut'
p795
F800
sg16
(F0.01417
F3.6069999999999999e-05
S'pb'
tp796
sS'maxCut'
p797
F1300
sg19
(I37968
I11279
tp798
stRp799
stRp800
stRp801
stRp802
sS'M1300'
p803
g1
(g2
g3
(dp804
S'Lam10'
p805
g1
(g2
g3
(dp806
S'Des'
p807
g1
(g2
g3
(dp808
S'LR'
p809
g1
(g2
g3
(dp810
S'minCut'
p811
F1300
sg16
(F0.02086
F5.3319999999999998e-05
S'pb'
tp812
sS'maxCut'
p813
F10000000000
sg19
(I45905
I4095
tp814
stRp815
sS'RR'
p816
g1
(g2
g3
(dp817
S'minCut'
p818
F1300
sg16
(F0.01025
F2.7399999999999999e-05
S'pb'
tp819
sS'maxCut'
p820
F10000000000
sg19
(I45897
I4103
tp821
stRp822
stRp823
sS'Con'
p824
g1
(g2
g3
(dp825
S'LL'
p826
g1
(g2
g3
(dp827
S'minCut'
p828
F1300
sg16
(F0.01417
F3.9669999999999998e-05
S'pb'
tp829
sS'maxCut'
p830
F2000
sg19
(I28779
I21221
tp831
stRp832
sS'LR'
p833
g1
(g2
g3
(dp834
S'minCut'
p835
F1300
sg16
(F0.025100000000000001
F6.6459999999999997e-05
S'pb'
tp836
sS'maxCut'
p837
F10000000000
sg19
(I45484
I4516
tp838
stRp839
sS'RR'
p840
g1
(g2
g3
(dp841
S'minCut'
p842
F1300
sg16
(F0.01417
F4.0000000000000003e-05
S'pb'
tp843
sS'maxCut'
p844
F10000000000
sg19
(I45274
I4726
tp845
stRp846
stRp847
stRp848
sS'Lam100k'
p849
g1
(g2
g3
(dp850
S'Des'
p851
g1
(g2
g3
(dp852
S'LR'
p853
g1
(g2
g3
(dp854
S'minCut'
p855
F1300
sg16
(F0.0015200000000000001
F3.8290000000000001e-06
S'pb'
tp856
sS'maxCut'
p857
F10000000000
sg19
(I43050
I6950
tp858
stRp859
sS'RR'
p860
g1
(g2
g3
(dp861
S'minCut'
p862
F1300
sg16
(F0.001534
F3.8750000000000002e-06
S'pb'
tp863
sS'maxCut'
p864
F10000000000
sg19
(I42944
I7056
tp865
stRp866
stRp867
sS'Con'
p868
g1
(g2
g3
(dp869
S'LL'
p870
g1
(g2
g3
(dp871
S'minCut'
p872
F1300
sg16
(F0.0015299999999999999
F3.8530000000000002e-06
S'pb'
tp873
sS'maxCut'
p874
F2000
sg19
(I38573
I11427
tp875
stRp876
sS'LR'
p877
g1
(g2
g3
(dp878
S'minCut'
p879
F1300
sg16
(F0.001524
F3.8430000000000003e-06
S'pb'
tp880
sS'maxCut'
p881
F10000000000
sg19
(I42987
I7013
tp882
stRp883
sS'RR'
p884
g1
(g2
g3
(dp885
S'minCut'
p886
F1300
sg16
(F0.0015219999999999999
F3.8299999999999998e-06
S'pb'
tp887
sS'maxCut'
p888
F10000000000
sg19
(I43136
I6864
tp889
stRp890
stRp891
stRp892
sS'Lam1'
p893
g1
(g2
g3
(dp894
S'Des'
p895
g1
(g2
g3
(dp896
S'LR'
p897
g1
(g2
g3
(dp898
S'minCut'
p899
F1300
sg16
(F232.69999999999999
F0.62690000000000001
S'pb'
tp900
sS'maxCut'
p901
F10000000000
sg19
(I45732
I4268
tp902
stRp903
stRp904
sS'Con'
p905
g1
(g2
g3
(dp906
S'LL'
p907
g1
(g2
g3
(dp908
S'minCut'
p909
F1300
sg16
(F117.09999999999999
F0.31719999999999998
S'pb'
tp910
sS'maxCut'
p911
F2000
sg19
(I26596
I22516
tp912
stRp913
sS'LR'
p914
g1
(g2
g3
(dp915
S'minCut'
p916
F1300
sg16
(F235.19999999999999
F0.76300000000000001
S'pb'
tp917
sS'maxCut'
p918
F10000000000
sg19
(I31800
I2863
tp919
stRp920
sS'RR'
p921
g1
(g2
g3
(dp922
S'minCut'
p923
F1300
sg16
(F116.59999999999999
F0.31919999999999998
S'pb'
tp924
sS'maxCut'
p925
F10000000000
sg19
(I44226
I3979
tp926
stRp927
stRp928
stRp929
sS'Lam16'
p930
g1
(g2
g3
(dp931
S'Des'
p932
g1
(g2
g3
(dp933
S'LR'
p934
g1
(g2
g3
(dp935
S'minCut'
p936
F1300
sg16
(F0.0039760000000000004
F1.007e-05
S'pb'
tp937
sS'maxCut'
p938
F10000000000
sg19
(I45425
I4575
tp939
stRp940
sS'RR'
p941
g1
(g2
g3
(dp942
S'minCut'
p943
F1300
sg16
(F0.002382
F6.1419999999999998e-06
S'pb'
tp944
sS'maxCut'
p945
F10000000000
sg19
(I44842
I5158
tp946
stRp947
stRp948
sS'Con'
p949
g1
(g2
g3
(dp950
S'LL'
p951
g1
(g2
g3
(dp952
S'minCut'
p953
F1300
sg16
(F0.003954
F1.0669999999999999e-05
S'pb'
tp954
sS'maxCut'
p955
F2000
sg19
(I32937
I17063
tp956
stRp957
sS'LR'
p958
g1
(g2
g3
(dp959
S'minCut'
p960
F1300
sg16
(F0.0056389999999999999
F1.573e-05
S'pb'
tp961
sS'maxCut'
p962
F10000000000
sg19
(I45177
I4823
tp963
stRp964
sS'RR'
p965
g1
(g2
g3
(dp966
S'minCut'
p967
F1300
sg16
(F0.0039189999999999997
F1.0560000000000001e-05
S'pb'
tp968
sS'maxCut'
p969
F10000000000
sg19
(I44440
I5136
tp970
stRp971
stRp972
stRp973
sS'Lam28'
p974
g1
(g2
g3
(dp975
S'Des'
p976
g1
(g2
g3
(dp977
S'LL'
p978
g1
(g2
g3
(dp979
S'minCut'
p980
F1300
sg16
(F0.001446
F3.613e-06
S'pb'
tp981
sS'maxCut'
p982
F10000000000
sg19
(I42405
I6829
tp983
stRp984
sS'LR'
p985
g1
(g2
g3
(dp986
S'minCut'
p987
F1300
sg16
(F0.0016130000000000001
F3.9369999999999997e-06
S'pb'
tp988
sS'maxCut'
p989
F10000000000
sg19
(I43587
I6413
tp990
stRp991
sS'RR'
p992
g1
(g2
g3
(dp993
S'minCut'
p994
F1300
sg16
(F0.0014480000000000001
F3.6100000000000002e-06
S'pb'
tp995
sS'maxCut'
p996
F10000000000
sg19
(I42668
I6572
tp997
stRp998
stRp999
sS'Con'
p1000
g1
(g2
g3
(dp1001
S'LL'
p1002
g1
(g2
g3
(dp1003
S'minCut'
p1004
F1300
sg16
(F0.001949
F4.9119999999999997e-06
S'pb'
tp1005
sS'maxCut'
p1006
F2000
sg19
(I37351
I12649
tp1007
stRp1008
sS'LR'
p1009
g1
(g2
g3
(dp1010
S'minCut'
p1011
F1300
sg16
(F0.0021419999999999998
F5.1070000000000004e-06
S'pb'
tp1012
sS'maxCut'
p1013
F10000000000
sg19
(I42173
I5917
tp1014
stRp1015
sS'RR'
p1016
g1
(g2
g3
(dp1017
S'minCut'
p1018
F1300
sg16
(F0.001952
F4.9200000000000003e-06
S'pb'
tp1019
sS'maxCut'
p1020
F10000000000
sg19
(I43652
I6348
tp1021
stRp1022
stRp1023
stRp1024
sS'Lam22'
p1025
g1
(g2
g3
(dp1026
S'Des'
p1027
g1
(g2
g3
(dp1028
S'LL'
p1029
g1
(g2
g3
(dp1030
S'minCut'
p1031
F1300
sg16
(F0.001578
F3.8970000000000001e-06
S'pb'
tp1032
sS'maxCut'
p1033
F10000000000
sg19
(I43642
I6358
tp1034
stRp1035
sS'LR'
p1036
g1
(g2
g3
(dp1037
S'minCut'
p1038
F1300
sg16
(F0.002006
F4.6380000000000003e-06
S'pb'
tp1039
sS'maxCut'
p1040
F10000000000
sg19
(I44249
I5751
tp1041
stRp1042
sS'RR'
p1043
g1
(g2
g3
(dp1044
S'minCut'
p1045
F1300
sg16
(F0.0015839999999999999
F3.8859999999999997e-06
S'pb'
tp1046
sS'maxCut'
p1047
F10000000000
sg19
(I43826
I6174
tp1048
stRp1049
stRp1050
sS'Con'
p1051
g1
(g2
g3
(dp1052
S'LR'
p1053
g1
(g2
g3
(dp1054
S'minCut'
p1055
F1300
sg16
(F0.0028800000000000002
F6.9299999999999997e-06
S'pb'
tp1056
sS'maxCut'
p1057
F10000000000
sg19
(I44167
I5492
tp1058
stRp1059
sS'RR'
p1060
g1
(g2
g3
(dp1061
S'minCut'
p1062
F1300
sg16
(F0.002392
F6.263e-06
S'pb'
tp1063
sS'maxCut'
p1064
F10000000000
sg19
(I41874
I5716
tp1065
stRp1066
stRp1067
stRp1068
sS'Lam34'
p1069
g1
(g2
g3
(dp1070
S'Des'
p1071
g1
(g2
g3
(dp1072
S'LL'
p1073
g1
(g2
g3
(dp1074
S'minCut'
p1075
F1300
sg16
(F0.001436
F3.591e-06
S'pb'
tp1076
sS'maxCut'
p1077
F10000000000
sg19
(I42940
I6763
tp1078
stRp1079
sS'LR'
p1080
g1
(g2
g3
(dp1081
S'minCut'
p1082
F1300
sg16
(F0.001508
F3.7919999999999999e-06
S'pb'
tp1083
sS'maxCut'
p1084
F10000000000
sg19
(I43402
I6598
tp1085
stRp1086
sS'RR'
p1087
g1
(g2
g3
(dp1088
S'minCut'
p1089
F1300
sg16
(F0.001433
F3.5659999999999998e-06
S'pb'
tp1090
sS'maxCut'
p1091
F10000000000
sg19
(I43132
I6868
tp1092
stRp1093
stRp1094
sS'Con'
p1095
g1
(g2
g3
(dp1096
S'LL'
p1097
g1
(g2
g3
(dp1098
S'minCut'
p1099
F1300
sg16
(F0.001779
F4.4800000000000003e-06
S'pb'
tp1100
sS'maxCut'
p1101
F2000
sg19
(I37908
I12092
tp1102
stRp1103
sS'LR'
p1104
g1
(g2
g3
(dp1105
S'minCut'
p1106
F1300
sg16
(F0.001874
F4.5059999999999997e-06
S'pb'
tp1107
sS'maxCut'
p1108
F10000000000
sg19
(I42413
I6319
tp1109
stRp1110
sS'RR'
p1111
g1
(g2
g3
(dp1112
S'minCut'
p1113
F1300
sg16
(F0.0017750000000000001
F4.4870000000000004e-06
S'pb'
tp1114
sS'maxCut'
p1115
F10000000000
sg19
(I43577
I6423
tp1116
stRp1117
stRp1118
stRp1119
stRp1120
stRp1121
sS'DYTo2E'
p1122
g1
(g2
g3
(dp1123
S'M300'
p1124
g1
(g2
g3
(dp1125
S'minCut'
p1126
F300
sg16
(F78420000000
F19.760000000000002
S'pb'
tp1127
sS'maxCut'
p1128
F800
sg19
(I0
I50000
tp1129
stRp1130
sS'M800'
p1131
g1
(g2
g3
(dp1132
S'minCut'
p1133
F800
sg16
(F78420000000
F0
S'pb'
tp1134
sS'maxCut'
p1135
F1300
sg19
(I0
I50000
tp1136
stRp1137
sS'M1300'
p1138
g1
(g2
g3
(dp1139
S'minCut'
p1140
F1300
sg16
(F78390000000
F0
S'pb'
tp1141
sS'maxCut'
p1142
F10000000000
sg19
(I0
I50000
tp1143
stRp1144
stRp1145
sS'DYTo2Mu'
p1146
g1
(g2
g3
(dp1147
S'M300'
p1148
g1
(g2
g3
(dp1149
S'minCut'
p1150
F300
sg16
(F0.56579999999999997
F0.0014239999999999999
S'pb'
tp1151
sS'maxCut'
p1152
F800
sg19
(I45381
I4619
tp1153
stRp1154
sS'M800'
p1155
g1
(g2
g3
(dp1156
S'minCut'
p1157
F800
sg16
(F0.014189999999999999
F3.608e-05
S'pb'
tp1158
sS'maxCut'
p1159
F1300
sg19
(I40568
I9432
tp1160
stRp1161
sS'M1300'
p1162
g1
(g2
g3
(dp1163
S'minCut'
p1164
F1300
sg16
(F0.0016570000000000001
F4.2180000000000001e-06
S'pb'
tp1165
sS'maxCut'
p1166
F10000000000
sg19
(I44483
I4488
tp1167
stRp1168
stRp1169
sS'CITo2Mu'
p1170
g1
(g2
g3
(dp1171
S'M300'
p1172
g1
(g2
g3
(dp1173
S'Lam10'
p1174
g1
(g2
g3
(dp1175
S'Des'
p1176
g1
(g2
g3
(dp1177
S'LL'
p1178
g1
(g2
g3
(dp1179
S'minCut'
p1180
F300
sg16
(F0.55220000000000002
F0.0013600000000000001
S'pb'
tp1181
sS'maxCut'
p1182
F800
sg19
(I44433
I5567
tp1183
stRp1184
sS'LR'
p1185
g1
(g2
g3
(dp1186
S'minCut'
p1187
F300
sg16
(F0.57779999999999998
F0.0014159999999999999
S'pb'
tp1188
sS'maxCut'
p1189
F800
sg19
(I43081
I6919
tp1190
stRp1191
sS'RR'
p1192
g1
(g2
g3
(dp1193
S'minCut'
p1194
F300
sg16
(F0.54820000000000002
F0.001354
S'pb'
tp1195
sS'maxCut'
p1196
F800
sg19
(I44476
I5524
tp1197
stRp1198
stRp1199
sS'Con'
p1200
g1
(g2
g3
(dp1201
S'LL'
p1202
g1
(g2
g3
(dp1203
S'minCut'
p1204
F300
sg16
(F0.63109999999999999
F0.001549
S'pb'
tp1205
sS'maxCut'
p1206
F800
sg19
(I43913
I6087
tp1207
stRp1208
sS'LR'
p1209
g1
(g2
g3
(dp1210
S'minCut'
p1211
F300
sg16
(F0.67989999999999995
F0.0015820000000000001
S'pb'
tp1212
sS'maxCut'
p1213
F800
sg19
(I42785
I7215
tp1214
stRp1215
sS'RR'
p1216
g1
(g2
g3
(dp1217
S'minCut'
p1218
F300
sg16
(F0.63729999999999998
F0.0015759999999999999
S'pb'
tp1219
sS'maxCut'
p1220
F800
sg19
(I43952
I6048
tp1221
stRp1222
stRp1223
stRp1224
sS'Lam100k'
p1225
g1
(g2
g3
(dp1226
S'Des'
p1227
g1
(g2
g3
(dp1228
S'LL'
p1229
g1
(g2
g3
(dp1230
S'minCut'
p1231
F300
sg16
(F0.55720000000000003
F0.001389
S'pb'
tp1232
sS'maxCut'
p1233
F800
sg19
(I45520
I4480
tp1234
stRp1235
sS'LR'
p1236
g1
(g2
g3
(dp1237
S'minCut'
p1238
F300
sg16
(F0.55889999999999995
F0.001408
S'pb'
tp1239
sS'maxCut'
p1240
F800
sg19
(I45038
I4462
tp1241
stRp1242
sS'RR'
p1243
g1
(g2
g3
(dp1244
S'minCut'
p1245
F300
sg16
(F0.55659999999999998
F0.0013910000000000001
S'pb'
tp1246
sS'maxCut'
p1247
F800
sg19
(I45335
I4665
tp1248
stRp1249
stRp1250
sS'Con'
p1251
g1
(g2
g3
(dp1252
S'LL'
p1253
g1
(g2
g3
(dp1254
S'minCut'
p1255
F300
sg16
(F0.55910000000000004
F0.0013979999999999999
S'pb'
tp1256
sS'maxCut'
p1257
F800
sg19
(I45432
I4568
tp1258
stRp1259
sS'LR'
p1260
g1
(g2
g3
(dp1261
S'minCut'
p1262
F300
sg16
(F0.55940000000000001
F0.001402
S'pb'
tp1263
sS'maxCut'
p1264
F800
sg19
(I45547
I4453
tp1265
stRp1266
sS'RR'
p1267
g1
(g2
g3
(dp1268
S'minCut'
p1269
F300
sg16
(F0.55679999999999996
F0.0013929999999999999
S'pb'
tp1270
sS'maxCut'
p1271
F800
sg19
(I45511
I4489
tp1272
stRp1273
stRp1274
stRp1275
sS'Lam1'
p1276
g1
(g2
g3
(dp1277
S'Des'
p1278
g1
(g2
g3
(dp1279
S'LL'
p1280
g1
(g2
g3
(dp1281
S'minCut'
p1282
F300
sg16
(F364.80000000000001
F0.92269999999999996
S'pb'
tp1283
sS'maxCut'
p1284
F800
sg19
(I21867
I28133
tp1285
stRp1286
sS'LR'
p1287
g1
(g2
g3
(dp1288
S'minCut'
p1289
F300
sg16
(F733.29999999999995
F1.8819999999999999
S'pb'
tp1290
sS'maxCut'
p1291
F800
sg19
(I21209
I27573
tp1292
stRp1293
sS'RR'
p1294
g1
(g2
g3
(dp1295
S'minCut'
p1296
F300
sg16
(F364.60000000000002
F0.93220000000000003
S'pb'
tp1297
sS'maxCut'
p1298
F800
sg19
(I21525
I27675
tp1299
stRp1300
stRp1301
sS'Con'
p1302
g1
(g2
g3
(dp1303
S'LL'
p1304
g1
(g2
g3
(dp1305
S'minCut'
p1306
F300
sg16
(F372.69999999999999
F0.93940000000000001
S'pb'
tp1307
sS'maxCut'
p1308
F800
sg19
(I22317
I27683
tp1309
stRp1310
sS'LR'
p1311
g1
(g2
g3
(dp1312
S'minCut'
p1313
F300
sg16
(F742.20000000000005
F1.875
S'pb'
tp1314
sS'maxCut'
p1315
F800
sg19
(I22081
I27919
tp1316
stRp1317
sS'RR'
p1318
g1
(g2
g3
(dp1319
S'minCut'
p1320
F300
sg16
(F373.19999999999999
F0.96589999999999998
S'pb'
tp1321
sS'maxCut'
p1322
F800
sg19
(I21450
I26070
tp1323
stRp1324
stRp1325
stRp1326
sS'Lam16'
p1327
g1
(g2
g3
(dp1328
S'Des'
p1329
g1
(g2
g3
(dp1330
S'LL'
p1331
g1
(g2
g3
(dp1332
S'minCut'
p1333
F300
sg16
(F0.54869999999999997
F0.001372
S'pb'
tp1334
sS'maxCut'
p1335
F800
sg19
(I45496
I4504
tp1336
stRp1337
sS'LR'
p1338
g1
(g2
g3
(dp1339
S'minCut'
p1340
F300
sg16
(F0.55120000000000002
F0.001421
S'pb'
tp1341
sS'maxCut'
p1342
F800
sg19
(I43205
I4455
tp1343
stRp1344
sS'RR'
p1345
g1
(g2
g3
(dp1346
S'minCut'
p1347
F300
sg16
(F0.55000000000000004
F0.0013749999999999999
S'pb'
tp1348
sS'maxCut'
p1349
F800
sg19
(I45530
I4470
tp1350
stRp1351
stRp1352
sS'Con'
p1353
g1
(g2
g3
(dp1354
S'LL'
p1355
g1
(g2
g3
(dp1356
S'minCut'
p1357
F300
sg16
(F0.57979999999999998
F0.001446
S'pb'
tp1358
sS'maxCut'
p1359
F800
sg19
(I45224
I4776
tp1360
stRp1361
sS'LR'
p1362
g1
(g2
g3
(dp1363
S'minCut'
p1364
F300
sg16
(F0.58960000000000001
F0.001441
S'pb'
tp1365
sS'maxCut'
p1366
F800
sg19
(I45021
I4979
tp1367
stRp1368
sS'RR'
p1369
g1
(g2
g3
(dp1370
S'minCut'
p1371
F300
sg16
(F0.58350000000000002
F0.001449
S'pb'
tp1372
sS'maxCut'
p1373
F800
sg19
(I45406
I4594
tp1374
stRp1375
stRp1376
stRp1377
sS'Lam28'
p1378
g1
(g2
g3
(dp1379
S'Des'
p1380
g1
(g2
g3
(dp1381
S'LL'
p1382
g1
(g2
g3
(dp1383
S'minCut'
p1384
F300
sg16
(F0.55510000000000004
F0.0013910000000000001
S'pb'
tp1385
sS'maxCut'
p1386
F800
sg19
(I45684
I4316
tp1387
stRp1388
sS'LR'
p1389
g1
(g2
g3
(dp1390
S'minCut'
p1391
F300
sg16
(F0.55330000000000001
F0.001395
S'pb'
tp1392
sS'maxCut'
p1393
F800
sg19
(I45658
I4342
tp1394
stRp1395
sS'RR'
p1396
g1
(g2
g3
(dp1397
S'minCut'
p1398
F300
sg16
(F0.55520000000000003
F0.00139
S'pb'
tp1399
sS'maxCut'
p1400
F800
sg19
(I45657
I4343
tp1401
stRp1402
stRp1403
sS'Con'
p1404
g1
(g2
g3
(dp1405
S'LL'
p1406
g1
(g2
g3
(dp1407
S'minCut'
p1408
F300
sg16
(F0.56579999999999997
F0.0014189999999999999
S'pb'
tp1409
sS'maxCut'
p1410
F800
sg19
(I45614
I4386
tp1411
stRp1412
sS'LR'
p1413
g1
(g2
g3
(dp1414
S'minCut'
p1415
F300
sg16
(F0.56850000000000001
F0.001418
S'pb'
tp1416
sS'maxCut'
p1417
F800
sg19
(I45529
I4471
tp1418
stRp1419
sS'RR'
p1420
g1
(g2
g3
(dp1421
S'minCut'
p1422
F300
sg16
(F0.56459999999999999
F0.0014120000000000001
S'pb'
tp1423
sS'maxCut'
p1424
F800
sg19
(I45516
I4484
tp1425
stRp1426
stRp1427
stRp1428
sS'Lam22'
p1429
g1
(g2
g3
(dp1430
S'Des'
p1431
g1
(g2
g3
(dp1432
S'LL'
p1433
g1
(g2
g3
(dp1434
S'minCut'
p1435
F300
sg16
(F0.55069999999999997
F0.0013810000000000001
S'pb'
tp1436
sS'maxCut'
p1437
F800
sg19
(I45681
I4319
tp1438
stRp1439
sS'LR'
p1440
g1
(g2
g3
(dp1441
S'minCut'
p1442
F300
sg16
(F0.55149999999999999
F0.0013849999999999999
S'pb'
tp1443
sS'maxCut'
p1444
F800
sg19
(I45678
I4322
tp1445
stRp1446
sS'RR'
p1447
g1
(g2
g3
(dp1448
S'minCut'
p1449
F300
sg16
(F0.54900000000000004
F0.0013730000000000001
S'pb'
tp1450
sS'maxCut'
p1451
F800
sg19
(I45597
I4403
tp1452
stRp1453
stRp1454
sS'Con'
p1455
g1
(g2
g3
(dp1456
S'LL'
p1457
g1
(g2
g3
(dp1458
S'minCut'
p1459
F300
sg16
(F0.57120000000000004
F0.001428
S'pb'
tp1460
sS'maxCut'
p1461
F800
sg19
(I45470
I4530
tp1462
stRp1463
sS'LR'
p1464
g1
(g2
g3
(dp1465
S'minCut'
p1466
F300
sg16
(F0.57189999999999996
F0.0014170000000000001
S'pb'
tp1467
sS'maxCut'
p1468
F800
sg19
(I45371
I4629
tp1469
stRp1470
sS'RR'
p1471
g1
(g2
g3
(dp1472
S'minCut'
p1473
F300
sg16
(F0.57040000000000002
F0.0014289999999999999
S'pb'
tp1474
sS'maxCut'
p1475
F800
sg19
(I45499
I4501
tp1476
stRp1477
stRp1478
stRp1479
sS'Lam34'
p1480
g1
(g2
g3
(dp1481
S'Des'
p1482
g1
(g2
g3
(dp1483
S'LL'
p1484
g1
(g2
g3
(dp1485
S'minCut'
p1486
F300
sg16
(F0.55740000000000001
F0.0013940000000000001
S'pb'
tp1487
sS'maxCut'
p1488
F800
sg19
(I45734
I4266
tp1489
stRp1490
sS'LR'
p1491
g1
(g2
g3
(dp1492
S'minCut'
p1493
F300
sg16
(F0.55500000000000005
F0.0013940000000000001
S'pb'
tp1494
sS'maxCut'
p1495
F800
sg19
(I45626
I4374
tp1496
stRp1497
sS'RR'
p1498
g1
(g2
g3
(dp1499
S'minCut'
p1500
F300
sg16
(F0.55459999999999998
F0.001392
S'pb'
tp1501
sS'maxCut'
p1502
F800
sg19
(I45679
I4321
tp1503
stRp1504
stRp1505
sS'Con'
p1506
g1
(g2
g3
(dp1507
S'LL'
p1508
g1
(g2
g3
(dp1509
S'minCut'
p1510
F300
sg16
(F0.56410000000000005
F0.0014170000000000001
S'pb'
tp1511
sS'maxCut'
p1512
F800
sg19
(I45570
I4430
tp1513
stRp1514
sS'LR'
p1515
g1
(g2
g3
(dp1516
S'minCut'
p1517
F300
sg16
(F0.56159999999999999
F0.001402
S'pb'
tp1518
sS'maxCut'
p1519
F800
sg19
(I45604
I4396
tp1520
stRp1521
sS'RR'
p1522
g1
(g2
g3
(dp1523
S'minCut'
p1524
F300
sg16
(F0.56389999999999996
F0.001413
S'pb'
tp1525
sS'maxCut'
p1526
F800
sg19
(I45626
I4374
tp1527
stRp1528
stRp1529
stRp1530
stRp1531
sS'M2000'
p1532
g1
(g2
g3
(dp1533
S'Lam10'
p1534
g1
(g2
g3
(dp1535
S'Con'
p1536
g1
(g2
g3
(dp1537
S'LL'
p1538
g1
(g2
g3
(dp1539
S'minCut'
p1540
F2000
sg16
(F0.0052350000000000001
F1.4810000000000001e-05
S'pb'
tp1541
sS'maxCut'
p1542
F10000000000
sg19
(I46215
I3785
tp1543
stRp1544
stRp1545
stRp1546
sS'Lam28'
p1547
g1
(g2
g3
(dp1548
S'Con'
p1549
g1
(g2
g3
(dp1550
S'LL'
p1551
g1
(g2
g3
(dp1552
S'minCut'
p1553
F2000
sg16
(F0.00029530000000000002
F7.357e-07
S'pb'
tp1554
sS'maxCut'
p1555
F10000000000
sg19
(I45272
I4728
tp1556
stRp1557
stRp1558
stRp1559
sS'Lam1'
p1560
g1
(g2
g3
(dp1561
S'Con'
p1562
g1
(g2
g3
(dp1563
S'LL'
p1564
g1
(g2
g3
(dp1565
S'minCut'
p1566
F2000
sg16
(F49.840000000000003
F0.14180000000000001
S'pb'
tp1567
sS'maxCut'
p1568
F10000000000
sg19
(I46288
I3712
tp1569
stRp1570
stRp1571
stRp1572
sS'Lam16'
p1573
g1
(g2
g3
(dp1574
S'Con'
p1575
g1
(g2
g3
(dp1576
S'LL'
p1577
g1
(g2
g3
(dp1578
S'minCut'
p1579
F2000
sg16
(F0.001052
F2.8820000000000001e-06
S'pb'
tp1580
sS'maxCut'
p1581
F10000000000
sg19
(I46087
I3913
tp1582
stRp1583
stRp1584
stRp1585
sS'Lam22'
p1586
g1
(g2
g3
(dp1587
S'Con'
p1588
g1
(g2
g3
(dp1589
S'LL'
p1590
g1
(g2
g3
(dp1591
S'minCut'
p1592
F2000
sg16
(F0.0004548
F1.1769999999999999e-06
S'pb'
tp1593
sS'maxCut'
p1594
F10000000000
sg19
(I45585
I4415
tp1595
stRp1596
stRp1597
stRp1598
sS'Lam34'
p1599
g1
(g2
g3
(dp1600
S'Con'
p1601
g1
(g2
g3
(dp1602
S'LL'
p1603
g1
(g2
g3
(dp1604
S'minCut'
p1605
F2000
sg16
(F0.00023570000000000001
F5.8169999999999997e-07
S'pb'
tp1606
sS'maxCut'
p1607
F10000000000
sg19
(I45056
I4944
tp1608
stRp1609
stRp1610
stRp1611
stRp1612
sS'M800'
p1613
g1
(g2
g3
(dp1614
S'Lam10'
p1615
g1
(g2
g3
(dp1616
S'Des'
p1617
g1
(g2
g3
(dp1618
S'LL'
p1619
g1
(g2
g3
(dp1620
S'minCut'
p1621
F800
sg16
(F0.02605
F7.0909999999999997e-05
S'pb'
tp1622
sS'maxCut'
p1623
F1300
sg19
(I28759
I21241
tp1624
stRp1625
sS'LR'
p1626
g1
(g2
g3
(dp1627
S'minCut'
p1628
F800
sg16
(F0.059720000000000002
F0.00014109999999999999
S'pb'
tp1629
sS'maxCut'
p1630
F1300
sg19
(I27805
I22195
tp1631
stRp1632
sS'RR'
p1633
g1
(g2
g3
(dp1634
S'minCut'
p1635
F800
sg16
(F0.025829999999999999
F6.9779999999999999e-05
S'pb'
tp1636
sS'maxCut'
p1637
F1300
sg19
(I28588
I21412
tp1638
stRp1639
stRp1640
sS'Con'
p1641
g1
(g2
g3
(dp1642
S'LL'
p1643
g1
(g2
g3
(dp1644
S'minCut'
p1645
F800
sg16
(F0.039699999999999999
F0.0001132
S'pb'
tp1646
sS'maxCut'
p1647
F1300
sg19
(I30292
I19708
tp1648
stRp1649
sS'LR'
p1650
g1
(g2
g3
(dp1651
S'minCut'
p1652
F800
sg16
(F0.059720000000000002
F0.00014109999999999999
S'pb'
tp1653
sS'maxCut'
p1654
F1300
sg19
(I27805
I22195
tp1655
stRp1656
sS'RR'
p1657
g1
(g2
g3
(dp1658
S'minCut'
p1659
F800
sg16
(F0.039800000000000002
F0.0001137
S'pb'
tp1660
sS'maxCut'
p1661
F1300
sg19
(I30494
I19506
tp1662
stRp1663
stRp1664
stRp1665
sS'Lam100k'
p1666
g1
(g2
g3
(dp1667
S'Des'
p1668
g1
(g2
g3
(dp1669
S'LL'
p1670
g1
(g2
g3
(dp1671
S'minCut'
p1672
F800
sg16
(F0.013429999999999999
F3.4079999999999999e-05
S'pb'
tp1673
sS'maxCut'
p1674
F1300
sg19
(I40706
I9294
tp1675
stRp1676
sS'LR'
p1677
g1
(g2
g3
(dp1678
S'minCut'
p1679
F800
sg16
(F0.01345
F3.4650000000000002e-05
S'pb'
tp1680
sS'maxCut'
p1681
F1300
sg19
(I39388
I9112
tp1682
stRp1683
sS'RR'
p1684
g1
(g2
g3
(dp1685
S'minCut'
p1686
F800
sg16
(F0.0134
F3.4060000000000003e-05
S'pb'
tp1687
sS'maxCut'
p1688
F1300
sg19
(I40408
I9592
tp1689
stRp1690
stRp1691
sS'Con'
p1692
g1
(g2
g3
(dp1693
S'LL'
p1694
g1
(g2
g3
(dp1695
S'minCut'
p1696
F800
sg16
(F0.01345
F3.4230000000000003e-05
S'pb'
tp1697
sS'maxCut'
p1698
F1300
sg19
(I40261
I9239
tp1699
stRp1700
sS'LR'
p1701
g1
(g2
g3
(dp1702
S'minCut'
p1703
F800
sg16
(F0.55940000000000001
F0.001402
S'pb'
tp1704
sS'maxCut'
p1705
F1300
sg19
(I979
I49021
tp1706
stRp1707
sS'RR'
p1708
g1
(g2
g3
(dp1709
S'minCut'
p1710
F800
sg16
(F0.01337
F3.4310000000000002e-05
S'pb'
tp1711
sS'maxCut'
p1712
F1300
sg19
(I39851
I9149
tp1713
stRp1714
stRp1715
stRp1716
sS'Lam1'
p1717
g1
(g2
g3
(dp1718
S'Des'
p1719
g1
(g2
g3
(dp1720
S'LL'
p1721
g1
(g2
g3
(dp1722
S'minCut'
p1723
F800
sg16
(F207.19999999999999
F0.52470000000000006
S'pb'
tp1724
sS'maxCut'
p1725
F1300
sg19
(I21621
I28379
tp1726
stRp1727
sS'LR'
p1728
g1
(g2
g3
(dp1729
S'minCut'
p1730
F800
sg16
(F414.39999999999998
F1.05
S'pb'
tp1731
sS'maxCut'
p1732
F1300
sg19
(I21618
I28382
tp1733
stRp1734
sS'RR'
p1735
g1
(g2
g3
(dp1736
S'minCut'
p1737
F800
sg16
(F207.40000000000001
F0.52359999999999995
S'pb'
tp1738
sS'maxCut'
p1739
F1300
sg19
(I21306
I28694
tp1740
stRp1741
stRp1742
sS'Con'
p1743
g1
(g2
g3
(dp1744
S'LL'
p1745
g1
(g2
g3
(dp1746
S'minCut'
p1747
F800
sg16
(F208.80000000000001
F0.54149999999999998
S'pb'
tp1748
sS'maxCut'
p1749
F1300
sg19
(I20683
I26853
tp1750
stRp1751
sS'LR'
p1752
g1
(g2
g3
(dp1753
S'minCut'
p1754
F800
sg16
(F417
F1.052
S'pb'
tp1755
sS'maxCut'
p1756
F1300
sg19
(I21717
I28283
tp1757
stRp1758
sS'RR'
p1759
g1
(g2
g3
(dp1760
S'minCut'
p1761
F800
sg16
(F209
F0.53200000000000003
S'pb'
tp1762
sS'maxCut'
p1763
F1300
sg19
(I21515
I28485
tp1764
stRp1765
stRp1766
stRp1767
sS'Lam16'
p1768
g1
(g2
g3
(dp1769
S'Des'
p1770
g1
(g2
g3
(dp1771
S'LL'
p1772
g1
(g2
g3
(dp1773
S'minCut'
p1774
F800
sg16
(F0.013769999999999999
F3.4860000000000002e-05
S'pb'
tp1775
sS'maxCut'
p1776
F1300
sg19
(I36907
I11695
tp1777
stRp1778
sS'LR'
p1779
g1
(g2
g3
(dp1780
S'minCut'
p1781
F800
sg16
(F0.016330000000000001
F3.8500000000000001e-05
S'pb'
tp1782
sS'maxCut'
p1783
F1300
sg19
(I34985
I15015
tp1784
stRp1785
sS'RR'
p1786
g1
(g2
g3
(dp1787
S'minCut'
p1788
F800
sg16
(F0.01367
F3.3769999999999997e-05
S'pb'
tp1789
sS'maxCut'
p1790
F1300
sg19
(I37947
I12053
tp1791
stRp1792
stRp1793
sS'Con'
p1794
g1
(g2
g3
(dp1795
S'LL'
p1796
g1
(g2
g3
(dp1797
S'minCut'
p1798
F800
sg16
(F0.019019999999999999
F4.8170000000000001e-05
S'pb'
tp1799
sS'maxCut'
p1800
F1300
sg19
(I36980
I13020
tp1801
stRp1802
sS'LR'
p1803
g1
(g2
g3
(dp1804
S'minCut'
p1805
F800
sg16
(F0.022349999999999998
F5.2240000000000001e-05
S'pb'
tp1806
sS'maxCut'
p1807
F1300
sg19
(I35031
I14969
tp1808
stRp1809
sS'RR'
p1810
g1
(g2
g3
(dp1811
S'minCut'
p1812
F800
sg16
(F0.019120000000000002
F4.8550000000000001e-05
S'pb'
tp1813
sS'maxCut'
p1814
F1300
sg19
(I37075
I12925
tp1815
stRp1816
stRp1817
stRp1818
sS'Lam28'
p1819
g1
(g2
g3
(dp1820
S'Des'
p1821
g1
(g2
g3
(dp1822
S'LL'
p1823
g1
(g2
g3
(dp1824
S'minCut'
p1825
F800
sg16
(F0.01286
F3.252e-05
S'pb'
tp1826
sS'maxCut'
p1827
F1300
sg19
(I40871
I9129
tp1828
stRp1829
sS'LR'
p1830
g1
(g2
g3
(dp1831
S'minCut'
p1832
F800
sg16
(F0.01308
F3.3290000000000001e-05
S'pb'
tp1833
sS'maxCut'
p1834
F1300
sg19
(I40413
I9587
tp1835
stRp1836
sS'RR'
p1837
g1
(g2
g3
(dp1838
S'minCut'
p1839
F800
sg16
(F0.012840000000000001
F3.243e-05
S'pb'
tp1840
sS'maxCut'
p1841
F1300
sg19
(I40695
I9305
tp1842
stRp1843
stRp1844
sS'Con'
p1845
g1
(g2
g3
(dp1846
S'LL'
p1847
g1
(g2
g3
(dp1848
S'minCut'
p1849
F800
sg16
(F0.014590000000000001
F3.6999999999999998e-05
S'pb'
tp1850
sS'maxCut'
p1851
F1300
sg19
(I39974
I10026
tp1852
stRp1853
sS'LR'
p1854
g1
(g2
g3
(dp1855
S'minCut'
p1856
F800
sg16
(F0.01508
F3.6690000000000003e-05
S'pb'
tp1857
sS'maxCut'
p1858
F1300
sg19
(I39459
I10541
tp1859
stRp1860
sS'RR'
p1861
g1
(g2
g3
(dp1862
S'minCut'
p1863
F800
sg16
(F0.01465
F3.7079999999999997e-05
S'pb'
tp1864
sS'maxCut'
p1865
F1300
sg19
(I39915
I10085
tp1866
stRp1867
stRp1868
stRp1869
sS'Lam22'
p1870
g1
(g2
g3
(dp1871
S'Des'
p1872
g1
(g2
g3
(dp1873
S'LL'
p1874
g1
(g2
g3
(dp1875
S'minCut'
p1876
F800
sg16
(F0.012800000000000001
F3.2289999999999997e-05
S'pb'
tp1877
sS'maxCut'
p1878
F1300
sg19
(I40215
I9785
tp1879
stRp1880
sS'LR'
p1881
g1
(g2
g3
(dp1882
S'minCut'
p1883
F800
sg16
(F0.01353
F3.3819999999999998e-05
S'pb'
tp1884
sS'maxCut'
p1885
F1300
sg19
(I39238
I10762
tp1886
stRp1887
sS'RR'
p1888
g1
(g2
g3
(dp1889
S'minCut'
p1890
F800
sg16
(F0.012789999999999999
F3.2199999999999997e-05
S'pb'
tp1891
sS'maxCut'
p1892
F1300
sg19
(I40311
I9689
tp1893
stRp1894
stRp1895
sS'Con'
p1896
g1
(g2
g3
(dp1897
S'LL'
p1898
g1
(g2
g3
(dp1899
S'minCut'
p1900
F800
sg16
(F0.015699999999999999
F3.9700000000000003e-05
S'pb'
tp1901
sS'maxCut'
p1902
F1300
sg19
(I39175
I10825
tp1903
stRp1904
sS'LR'
p1905
g1
(g2
g3
(dp1906
S'minCut'
p1907
F800
sg16
(F0.016660000000000001
F3.9400000000000002e-05
S'pb'
tp1908
sS'maxCut'
p1909
F1300
sg19
(I38450
I11550
tp1910
stRp1911
sS'RR'
p1912
g1
(g2
g3
(dp1913
S'minCut'
p1914
F800
sg16
(F0.015720000000000001
F3.9730000000000001e-05
S'pb'
tp1915
sS'maxCut'
p1916
F1300
sg19
(I39121
I10879
tp1917
stRp1918
stRp1919
stRp1920
sS'Lam34'
p1921
g1
(g2
g3
(dp1922
S'Des'
p1923
g1
(g2
g3
(dp1924
S'LL'
p1925
g1
(g2
g3
(dp1926
S'minCut'
p1927
F800
sg16
(F0.012970000000000001
F3.2839999999999997e-05
S'pb'
tp1928
sS'maxCut'
p1929
F1300
sg19
(I41005
I8995
tp1930
stRp1931
sS'LR'
p1932
g1
(g2
g3
(dp1933
S'minCut'
p1934
F800
sg16
(F0.01307
F3.3470000000000003e-05
S'pb'
tp1935
sS'maxCut'
p1936
F1300
sg19
(I40512
I9488
tp1937
stRp1938
sS'RR'
p1939
g1
(g2
g3
(dp1940
S'minCut'
p1941
F800
sg16
(F0.01303
F3.2969999999999998e-05
S'pb'
tp1942
sS'maxCut'
p1943
F1300
sg19
(I40922
I9078
tp1944
stRp1945
stRp1946
sS'Con'
p1947
g1
(g2
g3
(dp1948
S'LL'
p1949
g1
(g2
g3
(dp1950
S'minCut'
p1951
F800
sg16
(F0.01421
F3.5849999999999997e-05
S'pb'
tp1952
sS'maxCut'
p1953
F1300
sg19
(I40094
I9906
tp1954
stRp1955
sS'LR'
p1956
g1
(g2
g3
(dp1957
S'minCut'
p1958
F800
sg16
(F0.01439
F3.5620000000000001e-05
S'pb'
tp1959
sS'maxCut'
p1960
F1300
sg19
(I40204
I9796
tp1961
stRp1962
sS'RR'
p1963
g1
(g2
g3
(dp1964
S'minCut'
p1965
F800
sg16
(F0.014200000000000001
F3.5960000000000001e-05
S'pb'
tp1966
sS'maxCut'
p1967
F1300
sg19
(I40228
I9772
tp1968
stRp1969
stRp1970
stRp1971
stRp1972
sS'M1300'
p1973
g1
(g2
g3
(dp1974
S'Lam10'
p1975
g1
(g2
g3
(dp1976
S'Des'
p1977
g1
(g2
g3
(dp1978
S'LL'
p1979
g1
(g2
g3
(dp1980
S'minCut'
p1981
F1300
sg16
(F0.010319999999999999
F2.7889999999999999e-05
S'pb'
tp1982
sS'maxCut'
p1983
F10000000000
sg19
(I47167
I2833
tp1984
stRp1985
sS'LR'
p1986
g1
(g2
g3
(dp1987
S'minCut'
p1988
F1300
sg16
(F0.020840000000000001
F5.308e-05
S'pb'
tp1989
sS'maxCut'
p1990
F10000000000
sg19
(I47284
I2716
tp1991
stRp1992
sS'RR'
p1993
g1
(g2
g3
(dp1994
S'minCut'
p1995
F1300
sg16
(F0.0103
F2.756e-05
S'pb'
tp1996
sS'maxCut'
p1997
F10000000000
sg19
(I47219
I2781
tp1998
stRp1999
stRp2000
sS'Con'
p2001
g1
(g2
g3
(dp2002
S'LL'
p2003
g1
(g2
g3
(dp2004
S'minCut'
p2005
F1300
sg16
(F0.01423
F4.0009999999999998e-05
S'pb'
tp2006
sS'maxCut'
p2007
F2000
sg19
(I29896
I20104
tp2008
stRp2009
sS'LR'
p2010
g1
(g2
g3
(dp2011
S'minCut'
p2012
F1300
sg16
(F0.024979999999999999
F6.6190000000000002e-05
S'pb'
tp2013
sS'maxCut'
p2014
F10000000000
sg19
(I47071
I2929
tp2015
stRp2016
sS'RR'
p2017
g1
(g2
g3
(dp2018
S'minCut'
p2019
F1300
sg16
(F0.014189999999999999
F3.9919999999999997e-05
S'pb'
tp2020
sS'maxCut'
p2021
F10000000000
sg19
(I46947
I3053
tp2022
stRp2023
stRp2024
stRp2025
sS'Lam100k'
p2026
g1
(g2
g3
(dp2027
S'Des'
p2028
g1
(g2
g3
(dp2029
S'LL'
p2030
g1
(g2
g3
(dp2031
S'minCut'
p2032
F1300
sg16
(F0.001519
F3.9330000000000003e-06
S'pb'
tp2033
sS'maxCut'
p2034
F10000000000
sg19
(I42858
I4642
tp2035
stRp2036
sS'LR'
p2037
g1
(g2
g3
(dp2038
S'minCut'
p2039
F1300
sg16
(F0.001523
F3.8349999999999997e-06
S'pb'
tp2040
sS'maxCut'
p2041
F10000000000
sg19
(I45041
I4959
tp2042
stRp2043
sS'RR'
p2044
g1
(g2
g3
(dp2045
S'minCut'
p2046
F1300
sg16
(F0.001524
F3.8399999999999997e-06
S'pb'
tp2047
sS'maxCut'
p2048
F10000000000
sg19
(I45086
I4914
tp2049
stRp2050
stRp2051
sS'Con'
p2052
g1
(g2
g3
(dp2053
S'LL'
p2054
g1
(g2
g3
(dp2055
S'minCut'
p2056
F1300
sg16
(F0.001526
F3.8419999999999998e-06
S'pb'
tp2057
sS'maxCut'
p2058
F2000
sg19
(I40498
I9502
tp2059
stRp2060
sS'LR'
p2061
g1
(g2
g3
(dp2062
S'minCut'
p2063
F1300
sg16
(F0.001519
F3.8240000000000001e-06
S'pb'
tp2064
sS'maxCut'
p2065
F10000000000
sg19
(I45043
I4957
tp2066
stRp2067
sS'RR'
p2068
g1
(g2
g3
(dp2069
S'minCut'
p2070
F1300
sg16
(F0.001516
F3.8089999999999999e-06
S'pb'
tp2071
sS'maxCut'
p2072
F10000000000
sg19
(I45193
I4807
tp2073
stRp2074
stRp2075
stRp2076
sS'Lam1'
p2077
g1
(g2
g3
(dp2078
S'Des'
p2079
g1
(g2
g3
(dp2080
S'LL'
p2081
g1
(g2
g3
(dp2082
S'minCut'
p2083
F1300
sg16
(F116.5
F0.31929999999999997
S'pb'
tp2084
sS'maxCut'
p2085
F10000000000
sg19
(I45828
I2588
tp2086
stRp2087
sS'LR'
p2088
g1
(g2
g3
(dp2089
S'minCut'
p2090
F1300
sg16
(F232.59999999999999
F0.63160000000000005
S'pb'
tp2091
sS'maxCut'
p2092
F10000000000
sg19
(I46615
I2585
tp2093
stRp2094
sS'RR'
p2095
g1
(g2
g3
(dp2096
S'minCut'
p2097
F1300
sg16
(F115.90000000000001
F0.32129999999999997
S'pb'
tp2098
sS'maxCut'
p2099
F10000000000
sg19
(I45111
I2459
tp2100
stRp2101
stRp2102
sS'Con'
p2103
g1
(g2
g3
(dp2104
S'LL'
p2105
g1
(g2
g3
(dp2106
S'minCut'
p2107
F1300
sg16
(F116.8
F0.31440000000000001
S'pb'
tp2108
sS'maxCut'
p2109
F2000
sg19
(I27571
I22429
tp2110
stRp2111
sS'LR'
p2112
g1
(g2
g3
(dp2113
S'minCut'
p2114
F1300
sg16
(F233.5
F0.63949999999999996
S'pb'
tp2115
sS'maxCut'
p2116
F10000000000
sg19
(I46159
I2551
tp2117
stRp2118
sS'RR'
p2119
g1
(g2
g3
(dp2120
S'minCut'
p2121
F1300
sg16
(F116.7
F0.31359999999999999
S'pb'
tp2122
sS'maxCut'
p2123
F10000000000
sg19
(I47384
I2616
tp2124
stRp2125
stRp2126
stRp2127
sS'Lam16'
p2128
g1
(g2
g3
(dp2129
S'Des'
p2130
g1
(g2
g3
(dp2131
S'LL'
p2132
g1
(g2
g3
(dp2133
S'minCut'
p2134
F1300
sg16
(F0.0024039999999999999
F6.2230000000000004e-06
S'pb'
tp2135
sS'maxCut'
p2136
F10000000000
sg19
(I46352
I3648
tp2137
stRp2138
sS'LR'
p2139
g1
(g2
g3
(dp2140
S'minCut'
p2141
F1300
sg16
(F0.0039830000000000004
F1.007e-05
S'pb'
tp2142
sS'maxCut'
p2143
F10000000000
sg19
(I46946
I3054
tp2144
stRp2145
sS'RR'
p2146
g1
(g2
g3
(dp2147
S'minCut'
p2148
F1300
sg16
(F0.0024030000000000002
F6.2999999999999998e-06
S'pb'
tp2149
sS'maxCut'
p2150
F10000000000
sg19
(I44792
I3450
tp2151
stRp2152
stRp2153
sS'Con'
p2154
g1
(g2
g3
(dp2155
S'LL'
p2156
g1
(g2
g3
(dp2157
S'minCut'
p2158
F1300
sg16
(F0.0039090000000000001
F1.0499999999999999e-05
S'pb'
tp2159
sS'maxCut'
p2160
F2000
sg19
(I34090
I15910
tp2161
stRp2162
sS'LR'
p2163
g1
(g2
g3
(dp2164
S'minCut'
p2165
F1300
sg16
(F0.0056280000000000002
F1.577e-05
S'pb'
tp2166
sS'maxCut'
p2167
F10000000000
sg19
(I46756
I3244
tp2168
stRp2169
sS'RR'
p2170
g1
(g2
g3
(dp2171
S'minCut'
p2172
F1300
sg16
(F0.0039389999999999998
F1.061e-05
S'pb'
tp2173
sS'maxCut'
p2174
F10000000000
sg19
(I46403
I3597
tp2175
stRp2176
stRp2177
stRp2178
sS'Lam28'
p2179
g1
(g2
g3
(dp2180
S'Des'
p2181
g1
(g2
g3
(dp2182
S'LL'
p2183
g1
(g2
g3
(dp2184
S'minCut'
p2185
F1300
sg16
(F0.0014549999999999999
F3.6169999999999998e-06
S'pb'
tp2186
sS'maxCut'
p2187
F10000000000
sg19
(I45240
I4760
tp2188
stRp2189
sS'LR'
p2190
g1
(g2
g3
(dp2191
S'minCut'
p2192
F1300
sg16
(F0.0016130000000000001
F3.9539999999999998e-06
S'pb'
tp2193
sS'maxCut'
p2194
F10000000000
sg19
(I45618
I4382
tp2195
stRp2196
sS'RR'
p2197
g1
(g2
g3
(dp2198
S'minCut'
p2199
F1300
sg16
(F0.001454
F3.6210000000000001e-06
S'pb'
tp2200
sS'maxCut'
p2201
F10000000000
sg19
(I45377
I4623
tp2202
stRp2203
stRp2204
sS'Con'
p2205
g1
(g2
g3
(dp2206
S'LL'
p2207
g1
(g2
g3
(dp2208
S'minCut'
p2209
F1300
sg16
(F0.001946
F4.9189999999999998e-06
S'pb'
tp2210
sS'maxCut'
p2211
F2000
sg19
(I38700
I11300
tp2212
stRp2213
sS'LR'
p2214
g1
(g2
g3
(dp2215
S'minCut'
p2216
F1300
sg16
(F0.00214
F5.0080000000000002e-06
S'pb'
tp2217
sS'maxCut'
p2218
F10000000000
sg19
(I45851
I4149
tp2219
stRp2220
sS'RR'
p2221
g1
(g2
g3
(dp2222
S'minCut'
p2223
F1300
sg16
(F0.0019449999999999999
F4.9200000000000003e-06
S'pb'
tp2224
sS'maxCut'
p2225
F10000000000
sg19
(I45599
I4401
tp2226
stRp2227
stRp2228
stRp2229
sS'Lam22'
p2230
g1
(g2
g3
(dp2231
S'Des'
p2232
g1
(g2
g3
(dp2233
S'LL'
p2234
g1
(g2
g3
(dp2235
S'minCut'
p2236
F1300
sg16
(F0.001573
F3.8859999999999997e-06
S'pb'
tp2237
sS'maxCut'
p2238
F10000000000
sg19
(I45594
I4406
tp2239
stRp2240
sS'LR'
p2241
g1
(g2
g3
(dp2242
S'minCut'
p2243
F1300
sg16
(F0.002006
F4.6269999999999999e-06
S'pb'
tp2244
sS'maxCut'
p2245
F10000000000
sg19
(I46081
I3919
tp2246
stRp2247
sS'RR'
p2248
g1
(g2
g3
(dp2249
S'minCut'
p2250
F1300
sg16
(F0.00158
F3.9060000000000004e-06
S'pb'
tp2251
sS'maxCut'
p2252
F10000000000
sg19
(I45547
I4453
tp2253
stRp2254
stRp2255
sS'Con'
p2256
g1
(g2
g3
(dp2257
S'LL'
p2258
g1
(g2
g3
(dp2259
S'minCut'
p2260
F1300
sg16
(F0.0023930000000000002
F6.1149999999999999e-06
S'pb'
tp2261
sS'maxCut'
p2262
F2000
sg19
(I37163
I12837
tp2263
stRp2264
sS'LR'
p2265
g1
(g2
g3
(dp2266
S'minCut'
p2267
F1300
sg16
(F0.0028649999999999999
F6.8940000000000004e-06
S'pb'
tp2268
sS'maxCut'
p2269
F10000000000
sg19
(I46036
I3964
tp2270
stRp2271
sS'RR'
p2272
g1
(g2
g3
(dp2273
S'minCut'
p2274
F1300
sg16
(F0.0024020000000000001
F6.1480000000000003e-06
S'pb'
tp2275
sS'maxCut'
p2276
F10000000000
sg19
(I45862
I4138
tp2277
stRp2278
stRp2279
stRp2280
sS'Lam34'
p2281
g1
(g2
g3
(dp2282
S'Des'
p2283
g1
(g2
g3
(dp2284
S'LL'
p2285
g1
(g2
g3
(dp2286
S'minCut'
p2287
F1300
sg16
(F0.001436
F3.585e-06
S'pb'
tp2288
sS'maxCut'
p2289
F10000000000
sg19
(I45222
I4778
tp2290
stRp2291
sS'LR'
p2292
g1
(g2
g3
(dp2293
S'minCut'
p2294
F1300
sg16
(F0.001508
F3.7960000000000002e-06
S'pb'
tp2295
sS'maxCut'
p2296
F10000000000
sg19
(I45467
I4533
tp2297
stRp2298
sS'RR'
p2299
g1
(g2
g3
(dp2300
S'minCut'
p2301
F1300
sg16
(F0.001431
F3.563e-06
S'pb'
tp2302
sS'maxCut'
p2303
F10000000000
sg19
(I45253
I4747
tp2304
stRp2305
stRp2306
sS'Con'
p2307
g1
(g2
g3
(dp2308
S'LL'
p2309
g1
(g2
g3
(dp2310
S'minCut'
p2311
F1300
sg16
(F0.001776
F4.4769999999999997e-06
S'pb'
tp2312
sS'maxCut'
p2313
F2000
sg19
(I39472
I10528
tp2314
stRp2315
sS'LR'
p2316
g1
(g2
g3
(dp2317
S'minCut'
p2318
F1300
sg16
(F0.001867
F4.4519999999999999e-06
S'pb'
tp2319
sS'maxCut'
p2320
F10000000000
sg19
(I45519
I4481
tp2321
stRp2322
sS'RR'
p2323
g1
(g2
g3
(dp2324
S'minCut'
p2325
F1300
sg16
(F0.0017719999999999999
F4.4610000000000001e-06
S'pb'
tp2326
sS'maxCut'
p2327
F10000000000
sg19
(I45377
I4623
tp2328
stRp2329
stRp2330
stRp2331
stRp2332
stRp2333
stRp2334
.