ccopy_reg
_reconstructor
p1
(cnesteddict
nesteddict
p2
c__builtin__
dict
p3
(dp4
S'CITo2E'
p5
g1
(g2
g3
(dp6
S'Lam10'
p7
g1
(g2
g3
(dp8
S'Des'
p9
g1
(g2
g3
(dp10
S'LL'
p11
g1
(g2
g3
(dp12
S'M300'
p13
g1
(g2
g3
(dp14
S'minCut'
p15
F300
sS'xsec'
p16
(F0.55320000000000003
F0.0013649999999999999
S'pb'
tp17
sS'maxCut'
p18
F800
sS'cutEfficiency'
p19
(I47655
I2345
tp20
stRp21
sS'M800'
p22
g1
(g2
g3
(dp23
S'minCut'
p24
F800
sg16
(F0.02597
F7.0889999999999994e-05
S'pb'
tp25
sS'maxCut'
p26
F1300
sg19
(I30390
I19610
tp27
stRp28
sS'M1300'
p29
g1
(g2
g3
(dp30
S'minCut'
p31
F1300
sg16
(F0.01026
F2.7549999999999999e-05
S'pb'
tp32
sS'maxCut'
p33
F10000000000
sg19
(I50000
I0
tp34
stRp35
stRp36
sS'LR'
p37
g1
(g2
g3
(dp38
S'M300'
p39
g1
(g2
g3
(dp40
S'minCut'
p41
F300
sg16
(F0.57840000000000003
F0.0014170000000000001
S'pb'
tp42
sS'maxCut'
p43
F800
sg19
(I46234
I3766
tp44
stRp45
sS'M800'
p46
g1
(g2
g3
(dp47
S'minCut'
p48
F800
sg16
(F0.044650000000000002
F0.0001016
S'pb'
tp49
sS'maxCut'
p50
F1300
sg19
(I26697
I23303
tp51
stRp52
sS'M1300'
p53
g1
(g2
g3
(dp54
S'minCut'
p55
F1300
sg16
(F0.02086
F5.3319999999999998e-05
S'pb'
tp56
sS'maxCut'
p57
F10000000000
sg19
(I50000
I0
tp58
stRp59
stRp60
sS'RR'
p61
g1
(g2
g3
(dp62
S'M300'
p63
g1
(g2
g3
(dp64
S'minCut'
p65
F300
sg16
(F0.54910000000000003
F0.001353
S'pb'
tp66
sS'maxCut'
p67
F800
sg19
(I47647
I2353
tp68
stRp69
sS'M800'
p70
g1
(g2
g3
(dp71
S'minCut'
p72
F800
sg16
(F0.025909999999999999
F7.0480000000000003e-05
S'pb'
tp73
sS'maxCut'
p74
F1300
sg19
(I29773
I19727
tp75
stRp76
sS'M1300'
p77
g1
(g2
g3
(dp78
S'minCut'
p79
F1300
sg16
(F0.01025
F2.7399999999999999e-05
S'pb'
tp80
sS'maxCut'
p81
F10000000000
sg19
(I50000
I0
tp82
stRp83
stRp84
stRp85
sS'Con'
p86
g1
(g2
g3
(dp87
S'LL'
p88
g1
(g2
g3
(dp89
S'M300'
p90
g1
(g2
g3
(dp91
S'minCut'
p92
F300
sg16
(F0.63360000000000005
F0.0015629999999999999
S'pb'
tp93
sS'maxCut'
p94
F800
sg19
(I46889
I3111
tp95
stRp96
sS'M2000'
p97
g1
(g2
g3
(dp98
S'minCut'
p99
F2000
sg16
(F0.0052399999999999999
F1.488e-05
S'pb'
tp100
sS'maxCut'
p101
F10000000000
sg19
(I50000
I0
tp102
stRp103
sS'M800'
p104
g1
(g2
g3
(dp105
S'minCut'
p106
F800
sg16
(F0.039489999999999997
F0.0001128
S'pb'
tp107
sS'maxCut'
p108
F1300
sg19
(I32065
I17935
tp109
stRp110
sS'M1300'
p111
g1
(g2
g3
(dp112
S'minCut'
p113
F1300
sg16
(F0.01417
F3.9669999999999998e-05
S'pb'
tp114
sS'maxCut'
p115
F2000
sg19
(I31448
I18552
tp116
stRp117
stRp118
sS'LR'
p119
g1
(g2
g3
(dp120
S'M300'
p121
g1
(g2
g3
(dp122
S'minCut'
p123
F300
sg16
(F0.68000000000000005
F0.001573
S'pb'
tp124
sS'maxCut'
p125
F800
sg19
(I45650
I4350
tp126
stRp127
sS'M800'
p128
g1
(g2
g3
(dp129
S'minCut'
p130
F800
sg16
(F0.059760000000000001
F0.00014119999999999999
S'pb'
tp131
sS'maxCut'
p132
F1300
sg19
(I28878
I21122
tp133
stRp134
sS'M1300'
p135
g1
(g2
g3
(dp136
S'minCut'
p137
F1300
sg16
(F0.025100000000000001
F6.6459999999999997e-05
S'pb'
tp138
sS'maxCut'
p139
F10000000000
sg19
(I50000
I0
tp140
stRp141
stRp142
sS'RR'
p143
g1
(g2
g3
(dp144
S'M300'
p145
g1
(g2
g3
(dp146
S'minCut'
p147
F300
sg16
(F0.63690000000000002
F0.0015709999999999999
S'pb'
tp148
sS'maxCut'
p149
F800
sg19
(I46852
I3148
tp150
stRp151
sS'M800'
p152
g1
(g2
g3
(dp153
S'minCut'
p154
F800
sg16
(F0.039550000000000002
F0.0001131
S'pb'
tp155
sS'maxCut'
p156
F1300
sg19
(I32074
I17926
tp157
stRp158
sS'M1300'
p159
g1
(g2
g3
(dp160
S'minCut'
p161
F1300
sg16
(F0.01417
F4.0000000000000003e-05
S'pb'
tp162
sS'maxCut'
p163
F10000000000
sg19
(I50000
I0
tp164
stRp165
stRp166
stRp167
stRp168
sS'Lam100k'
p169
g1
(g2
g3
(dp170
S'Des'
p171
g1
(g2
g3
(dp172
S'LL'
p173
g1
(g2
g3
(dp174
S'M300'
p175
g1
(g2
g3
(dp176
S'minCut'
p177
F300
sg16
(F0.55689999999999995
F0.001395
S'pb'
tp178
sS'maxCut'
p179
F800
sg19
(I43328
I6672
tp180
stRp181
sS'M800'
p182
g1
(g2
g3
(dp183
S'minCut'
p184
F800
sg16
(F0.01341
F3.4029999999999998e-05
S'pb'
tp185
sS'maxCut'
p186
F1300
sg19
(I38596
I11404
tp187
stRp188
sS'M1300'
p189
g1
(g2
g3
(dp190
S'minCut'
p191
F1300
sg16
(F0.001523
F3.827e-06
S'pb'
tp192
sS'maxCut'
p193
F10000000000
sg19
(I37475
I12525
tp194
stRp195
stRp196
sS'LR'
p197
g1
(g2
g3
(dp198
S'M300'
p199
g1
(g2
g3
(dp200
S'minCut'
p201
F300
sg16
(F0.56220000000000003
F0.001415
S'pb'
tp202
sS'maxCut'
p203
F800
sg19
(I43331
I6669
tp204
stRp205
sS'M800'
p206
g1
(g2
g3
(dp207
S'minCut'
p208
F800
sg16
(F0.013469999999999999
F3.4199999999999998e-05
S'pb'
tp209
sS'maxCut'
p210
F1300
sg19
(I38755
I11245
tp211
stRp212
sS'M1300'
p213
g1
(g2
g3
(dp214
S'minCut'
p215
F1300
sg16
(F0.0015200000000000001
F3.8290000000000001e-06
S'pb'
tp216
sS'maxCut'
p217
F10000000000
sg19
(I43050
I6950
tp218
stRp219
stRp220
sS'RR'
p221
g1
(g2
g3
(dp222
S'M300'
p223
g1
(g2
g3
(dp224
S'minCut'
p225
F300
sg16
(F0.55720000000000003
F0.0013960000000000001
S'pb'
tp226
sS'maxCut'
p227
F800
sg19
(I43333
I6667
tp228
stRp229
sS'M800'
p230
g1
(g2
g3
(dp231
S'minCut'
p232
F800
sg16
(F0.01345
F3.413e-05
S'pb'
tp233
sS'maxCut'
p234
F1300
sg19
(I38902
I11098
tp235
stRp236
sS'M1300'
p237
g1
(g2
g3
(dp238
S'minCut'
p239
F1300
sg16
(F0.001534
F3.8750000000000002e-06
S'pb'
tp240
sS'maxCut'
p241
F10000000000
sg19
(I42944
I7056
tp242
stRp243
stRp244
stRp245
sS'Con'
p246
g1
(g2
g3
(dp247
S'LL'
p248
g1
(g2
g3
(dp249
S'M300'
p250
g1
(g2
g3
(dp251
S'minCut'
p252
F300
sg16
(F0.55759999999999998
F0.001395
S'pb'
tp253
sS'maxCut'
p254
F800
sg19
(I43306
I6694
tp255
stRp256
sS'M2000'
p257
g1
(g2
g3
(dp258
S'minCut'
p259
F2000
sg16
(F0.00015779999999999999
F3.8290000000000002e-07
S'pb'
tp260
sS'maxCut'
p261
F10000000000
sg19
(I42334
I7666
tp262
stRp263
sS'M800'
p264
g1
(g2
g3
(dp265
S'minCut'
p266
F800
sg16
(F0.013429999999999999
F3.4140000000000002e-05
S'pb'
tp267
sS'maxCut'
p268
F1300
sg19
(I38731
I11269
tp269
stRp270
sS'M1300'
p271
g1
(g2
g3
(dp272
S'minCut'
p273
F1300
sg16
(F0.0015299999999999999
F3.8530000000000002e-06
S'pb'
tp274
sS'maxCut'
p275
F2000
sg19
(I38573
I11427
tp276
stRp277
stRp278
sS'LR'
p279
g1
(g2
g3
(dp280
S'M300'
p281
g1
(g2
g3
(dp282
S'minCut'
p283
F300
sg16
(F0.55789999999999995
F0.0013979999999999999
S'pb'
tp284
sS'maxCut'
p285
F800
sg19
(I43432
I6568
tp286
stRp287
sS'M800'
p288
g1
(g2
g3
(dp289
S'minCut'
p290
F800
sg16
(F0.0134
F3.3909999999999999e-05
S'pb'
tp291
sS'maxCut'
p292
F1300
sg19
(I38768
I11232
tp293
stRp294
sS'M1300'
p295
g1
(g2
g3
(dp296
S'minCut'
p297
F1300
sg16
(F0.001524
F3.8430000000000003e-06
S'pb'
tp298
sS'maxCut'
p299
F10000000000
sg19
(I42987
I7013
tp300
stRp301
stRp302
sS'RR'
p303
g1
(g2
g3
(dp304
S'M300'
p305
g1
(g2
g3
(dp306
S'minCut'
p307
F300
sg16
(F0.55549999999999999
F0.001392
S'pb'
tp308
sS'maxCut'
p309
F800
sg19
(I43312
I6688
tp310
stRp311
sS'M800'
p312
g1
(g2
g3
(dp313
S'minCut'
p314
F800
sg16
(F0.01337
F3.383e-05
S'pb'
tp315
sS'maxCut'
p316
F1300
sg19
(I38545
I11455
tp317
stRp318
sS'M1300'
p319
g1
(g2
g3
(dp320
S'minCut'
p321
F1300
sg16
(F0.0015219999999999999
F3.8299999999999998e-06
S'pb'
tp322
sS'maxCut'
p323
F10000000000
sg19
(I43136
I6864
tp324
stRp325
stRp326
stRp327
stRp328
sS'Lam1'
p329
g1
(g2
g3
(dp330
S'Des'
p331
g1
(g2
g3
(dp332
S'LL'
p333
g1
(g2
g3
(dp334
S'M300'
p335
g1
(g2
g3
(dp336
S'minCut'
p337
F300
sg16
(F365.80000000000001
F0.94230000000000003
S'pb'
tp338
sS'maxCut'
p339
F800
sg19
(I20972
I27224
tp340
stRp341
sS'M800'
p342
g1
(g2
g3
(dp343
S'minCut'
p344
F800
sg16
(F207.5
F0.55689999999999995
S'pb'
tp345
sS'maxCut'
p346
F1300
sg19
(I18844
I25516
tp347
stRp348
sS'M1300'
p349
g1
(g2
g3
(dp350
S'minCut'
p351
F1300
sg16
(F116.5
F0.31640000000000001
S'pb'
tp352
sS'maxCut'
p353
F10000000000
sg19
(I49322
I0
tp354
stRp355
stRp356
sS'LR'
p357
g1
(g2
g3
(dp358
S'M300'
p359
g1
(g2
g3
(dp360
S'minCut'
p361
F300
sg16
(F736.10000000000002
F1.893
S'pb'
tp362
sS'maxCut'
p363
F800
sg19
(I21275
I27186
tp364
stRp365
sS'M800'
p366
g1
(g2
g3
(dp367
S'minCut'
p368
F800
sg16
(F416.10000000000002
F1.0589999999999999
S'pb'
tp369
sS'maxCut'
p370
F1300
sg19
(I21288
I28364
tp371
stRp372
sS'M1300'
p373
g1
(g2
g3
(dp374
S'minCut'
p375
F1300
sg16
(F232.69999999999999
F0.62690000000000001
S'pb'
tp376
sS'maxCut'
p377
F10000000000
sg19
(I45732
I4268
tp378
stRp379
stRp380
sS'RR'
p381
g1
(g2
g3
(dp382
S'M300'
p383
g1
(g2
g3
(dp384
S'minCut'
p385
F300
sg16
(F366
F0.95040000000000002
S'pb'
tp386
sS'maxCut'
p387
F800
sg19
(I21095
I26841
tp388
stRp389
sS'M800'
p390
g1
(g2
g3
(dp391
S'minCut'
p392
F800
sg16
(F207.59999999999999
F0.52449999999999997
S'pb'
tp393
sS'maxCut'
p394
F1300
sg19
(I21470
I28530
tp395
stRp396
sS'M1300'
p397
g1
(g2
g3
(dp398
S'minCut'
p399
F1300
sg16
(F116.5
F0.31709999999999999
S'pb'
tp400
sS'maxCut'
p401
F10000000000
sg19
(I48876
I0
tp402
stRp403
stRp404
stRp405
sS'Con'
p406
g1
(g2
g3
(dp407
S'LL'
p408
g1
(g2
g3
(dp409
S'M300'
p410
g1
(g2
g3
(dp411
S'minCut'
p412
F300
sg16
(F373
F0.94320000000000004
S'pb'
tp413
sS'maxCut'
p414
F800
sg19
(I22386
I27614
tp415
stRp416
sS'M2000'
p417
g1
(g2
g3
(dp418
S'minCut'
p419
F2000
sg16
(F49.840000000000003
F0.14480000000000001
S'pb'
tp420
sS'maxCut'
p421
F10000000000
sg19
(I47651
I0
tp422
stRp423
sS'M800'
p424
g1
(g2
g3
(dp425
S'minCut'
p426
F800
sg16
(F208.40000000000001
F0.53010000000000002
S'pb'
tp427
sS'maxCut'
p428
F1300
sg19
(I21426
I28184
tp429
stRp430
sS'M1300'
p431
g1
(g2
g3
(dp432
S'minCut'
p433
F1300
sg16
(F117.09999999999999
F0.31719999999999998
S'pb'
tp434
sS'maxCut'
p435
F2000
sg19
(I26596
I22516
tp436
stRp437
stRp438
sS'LR'
p439
g1
(g2
g3
(dp440
S'M800'
p441
g1
(g2
g3
(dp442
S'minCut'
p443
F800
sg16
(F415.89999999999998
F1.0589999999999999
S'pb'
tp444
sS'maxCut'
p445
F1300
sg19
(I21333
I27969
tp446
stRp447
sS'M1300'
p448
g1
(g2
g3
(dp449
S'minCut'
p450
F1300
sg16
(F235.19999999999999
F0.76300000000000001
S'pb'
tp451
sS'maxCut'
p452
F10000000000
sg19
(I31800
I2863
tp453
stRp454
stRp455
sS'RR'
p456
g1
(g2
g3
(dp457
S'M300'
p458
g1
(g2
g3
(dp459
S'minCut'
p460
F300
sg16
(F373.39999999999998
F0.94530000000000003
S'pb'
tp461
sS'maxCut'
p462
F800
sg19
(I22256
I27372
tp463
stRp464
sS'M800'
p465
g1
(g2
g3
(dp466
S'minCut'
p467
F800
sg16
(F209.69999999999999
F0.53139999999999998
S'pb'
tp468
sS'maxCut'
p469
F1300
sg19
(I21441
I28559
tp470
stRp471
sS'M1300'
p472
g1
(g2
g3
(dp473
S'minCut'
p474
F1300
sg16
(F116.59999999999999
F0.31919999999999998
S'pb'
tp475
sS'maxCut'
p476
F10000000000
sg19
(I44226
I3979
tp477
stRp478
stRp479
stRp480
stRp481
sS'Lam16'
p482
g1
(g2
g3
(dp483
S'Des'
p484
g1
(g2
g3
(dp485
S'LL'
p486
g1
(g2
g3
(dp487
S'M300'
p488
g1
(g2
g3
(dp489
S'minCut'
p490
F300
sg16
(F0.54759999999999998
F0.0013699999999999999
S'pb'
tp491
sS'maxCut'
p492
F800
sg19
(I43083
I6521
tp493
stRp494
sS'M800'
p495
g1
(g2
g3
(dp496
S'minCut'
p497
F800
sg16
(F0.013809999999999999
F3.4980000000000001e-05
S'pb'
tp498
sS'maxCut'
p499
F1300
sg19
(I35337
I13121
tp500
stRp501
sS'M1300'
p502
g1
(g2
g3
(dp503
S'minCut'
p504
F1300
sg16
(F0.0024039999999999999
F6.302e-06
S'pb'
tp505
sS'maxCut'
p506
F10000000000
sg19
(I48325
I0
tp507
stRp508
stRp509
sS'LR'
p510
g1
(g2
g3
(dp511
S'M300'
p512
g1
(g2
g3
(dp513
S'minCut'
p514
F300
sg16
(F0.54990000000000006
F0.00139
S'pb'
tp515
sS'maxCut'
p516
F800
sg19
(I42576
I6798
tp517
stRp518
sS'M800'
p519
g1
(g2
g3
(dp520
S'minCut'
p521
F800
sg16
(F0.01643
F3.8630000000000001e-05
S'pb'
tp522
sS'maxCut'
p523
F1300
sg19
(I33790
I16210
tp524
stRp525
sS'M1300'
p526
g1
(g2
g3
(dp527
S'minCut'
p528
F1300
sg16
(F0.0039760000000000004
F1.007e-05
S'pb'
tp529
sS'maxCut'
p530
F10000000000
sg19
(I45425
I4575
tp531
stRp532
stRp533
sS'RR'
p534
g1
(g2
g3
(dp535
S'M300'
p536
g1
(g2
g3
(dp537
S'minCut'
p538
F300
sg16
(F0.54620000000000002
F0.001369
S'pb'
tp539
sS'maxCut'
p540
F800
sg19
(I43236
I6453
tp541
stRp542
sS'M800'
p543
g1
(g2
g3
(dp544
S'minCut'
p545
F800
sg16
(F0.013650000000000001
F3.4610000000000002e-05
S'pb'
tp546
sS'maxCut'
p547
F1300
sg19
(I34497
I13199
tp548
stRp549
sS'M1300'
p550
g1
(g2
g3
(dp551
S'minCut'
p552
F1300
sg16
(F0.002382
F6.1419999999999998e-06
S'pb'
tp553
sS'maxCut'
p554
F10000000000
sg19
(I44842
I5158
tp555
stRp556
stRp557
stRp558
sS'Con'
p559
g1
(g2
g3
(dp560
S'LL'
p561
g1
(g2
g3
(dp562
S'M300'
p563
g1
(g2
g3
(dp564
S'minCut'
p565
F300
sg16
(F0.57850000000000001
F0.001456
S'pb'
tp566
sS'maxCut'
p567
F800
sg19
(I42331
I6708
tp568
stRp569
sS'M2000'
p570
g1
(g2
g3
(dp571
S'minCut'
p572
F2000
sg16
(F0.001052
F2.9170000000000002e-06
S'pb'
tp573
sS'maxCut'
p574
F10000000000
sg19
(I43432
I5384
tp575
stRp576
sS'M800'
p577
g1
(g2
g3
(dp578
S'minCut'
p579
F800
sg16
(F0.019
F4.799e-05
S'pb'
tp580
sS'maxCut'
p581
F1300
sg19
(I35350
I14650
tp582
stRp583
sS'M1300'
p584
g1
(g2
g3
(dp585
S'minCut'
p586
F1300
sg16
(F0.003954
F1.0669999999999999e-05
S'pb'
tp587
sS'maxCut'
p588
F2000
sg19
(I32937
I17063
tp589
stRp590
stRp591
sS'LR'
p592
g1
(g2
g3
(dp593
S'M300'
p594
g1
(g2
g3
(dp595
S'minCut'
p596
F300
sg16
(F0.5897
F0.001446
S'pb'
tp597
sS'maxCut'
p598
F800
sg19
(I43046
I6954
tp599
stRp600
sS'M800'
p601
g1
(g2
g3
(dp602
S'minCut'
p603
F800
sg16
(F0.022339999999999999
F5.2240000000000001e-05
S'pb'
tp604
sS'maxCut'
p605
F1300
sg19
(I33548
I16452
tp606
stRp607
sS'M1300'
p608
g1
(g2
g3
(dp609
S'minCut'
p610
F1300
sg16
(F0.0056389999999999999
F1.573e-05
S'pb'
tp611
sS'maxCut'
p612
F10000000000
sg19
(I45177
I4823
tp613
stRp614
stRp615
sS'RR'
p616
g1
(g2
g3
(dp617
S'M300'
p618
g1
(g2
g3
(dp619
S'minCut'
p620
F300
sg16
(F0.58599999999999997
F0.001459
S'pb'
tp621
sS'maxCut'
p622
F800
sg19
(I43275
I6725
tp623
stRp624
sS'M800'
p625
g1
(g2
g3
(dp626
S'minCut'
p627
F800
sg16
(F0.01917
F4.9020000000000002e-05
S'pb'
tp628
sS'maxCut'
p629
F1300
sg19
(I34737
I14525
tp630
stRp631
sS'M1300'
p632
g1
(g2
g3
(dp633
S'minCut'
p634
F1300
sg16
(F0.0039189999999999997
F1.0560000000000001e-05
S'pb'
tp635
sS'maxCut'
p636
F10000000000
sg19
(I44440
I5136
tp637
stRp638
stRp639
stRp640
stRp641
sS'Lam28'
p642
g1
(g2
g3
(dp643
S'Des'
p644
g1
(g2
g3
(dp645
S'LL'
p646
g1
(g2
g3
(dp647
S'M300'
p648
g1
(g2
g3
(dp649
S'minCut'
p650
F300
sg16
(F0.55189999999999995
F0.001384
S'pb'
tp651
sS'maxCut'
p652
F800
sg19
(I43607
I6393
tp653
stRp654
sS'M800'
p655
g1
(g2
g3
(dp656
S'minCut'
p657
F800
sg16
(F0.012999999999999999
F3.2969999999999998e-05
S'pb'
tp658
sS'maxCut'
p659
F1300
sg19
(I38852
I11148
tp660
stRp661
sS'M1300'
p662
g1
(g2
g3
(dp663
S'minCut'
p664
F1300
sg16
(F0.001446
F3.613e-06
S'pb'
tp665
sS'maxCut'
p666
F10000000000
sg19
(I42405
I6829
tp667
stRp668
stRp669
sS'LR'
p670
g1
(g2
g3
(dp671
S'M300'
p672
g1
(g2
g3
(dp673
S'minCut'
p674
F300
sg16
(F0.55349999999999999
F0.0013860000000000001
S'pb'
tp675
sS'maxCut'
p676
F800
sg19
(I43473
I6527
tp677
stRp678
sS'M800'
p679
g1
(g2
g3
(dp680
S'minCut'
p681
F800
sg16
(F0.01308
F3.3330000000000001e-05
S'pb'
tp682
sS'maxCut'
p683
F1300
sg19
(I38283
I11717
tp684
stRp685
sS'M1300'
p686
g1
(g2
g3
(dp687
S'minCut'
p688
F1300
sg16
(F0.0016130000000000001
F3.9369999999999997e-06
S'pb'
tp689
sS'maxCut'
p690
F10000000000
sg19
(I43587
I6413
tp691
stRp692
stRp693
sS'RR'
p694
g1
(g2
g3
(dp695
S'M300'
p696
g1
(g2
g3
(dp697
S'minCut'
p698
F300
sg16
(F0.55520000000000003
F0.0013879999999999999
S'pb'
tp699
sS'maxCut'
p700
F800
sg19
(I43534
I6466
tp701
stRp702
sS'M800'
p703
g1
(g2
g3
(dp704
S'minCut'
p705
F800
sg16
(F0.01286
F3.2620000000000003e-05
S'pb'
tp706
sS'maxCut'
p707
F1300
sg19
(I38810
I11190
tp708
stRp709
sS'M1300'
p710
g1
(g2
g3
(dp711
S'minCut'
p712
F1300
sg16
(F0.0014480000000000001
F3.6100000000000002e-06
S'pb'
tp713
sS'maxCut'
p714
F10000000000
sg19
(I42668
I6572
tp715
stRp716
stRp717
stRp718
sS'Con'
p719
g1
(g2
g3
(dp720
S'LL'
p721
g1
(g2
g3
(dp722
S'M300'
p723
g1
(g2
g3
(dp724
S'minCut'
p725
F300
sg16
(F0.56399999999999995
F0.001413
S'pb'
tp726
sS'maxCut'
p727
F800
sg19
(I43531
I6469
tp728
stRp729
sS'M2000'
p730
g1
(g2
g3
(dp731
S'minCut'
p732
F2000
sg16
(F0.00029470000000000001
F7.3630000000000005e-07
S'pb'
tp733
sS'maxCut'
p734
F10000000000
sg19
(I43482
I6518
tp735
stRp736
sS'M800'
p737
g1
(g2
g3
(dp738
S'minCut'
p739
F800
sg16
(F0.014619999999999999
F3.7070000000000003e-05
S'pb'
tp740
sS'maxCut'
p741
F1300
sg19
(I38210
I11790
tp742
stRp743
sS'M1300'
p744
g1
(g2
g3
(dp745
S'minCut'
p746
F1300
sg16
(F0.001949
F4.9119999999999997e-06
S'pb'
tp747
sS'maxCut'
p748
F2000
sg19
(I37351
I12649
tp749
stRp750
stRp751
sS'LR'
p752
g1
(g2
g3
(dp753
S'M300'
p754
g1
(g2
g3
(dp755
S'minCut'
p756
F300
sg16
(F0.56710000000000005
F0.00141
S'pb'
tp757
sS'maxCut'
p758
F800
sg19
(I43488
I6512
tp759
stRp760
sS'M800'
p761
g1
(g2
g3
(dp762
S'minCut'
p763
F800
sg16
(F0.01502
F3.6640000000000002e-05
S'pb'
tp764
sS'maxCut'
p765
F1300
sg19
(I37712
I12288
tp766
stRp767
sS'M1300'
p768
g1
(g2
g3
(dp769
S'minCut'
p770
F1300
sg16
(F0.0021419999999999998
F5.1070000000000004e-06
S'pb'
tp771
sS'maxCut'
p772
F10000000000
sg19
(I42173
I5917
tp773
stRp774
stRp775
sS'RR'
p776
g1
(g2
g3
(dp777
S'M300'
p778
g1
(g2
g3
(dp779
S'minCut'
p780
F300
sg16
(F0.56579999999999997
F0.001415
S'pb'
tp781
sS'maxCut'
p782
F800
sg19
(I43569
I6431
tp783
stRp784
sS'M800'
p785
g1
(g2
g3
(dp786
S'minCut'
p787
F800
sg16
(F0.014630000000000001
F3.6900000000000002e-05
S'pb'
tp788
sS'maxCut'
p789
F1300
sg19
(I38054
I11946
tp790
stRp791
sS'M1300'
p792
g1
(g2
g3
(dp793
S'minCut'
p794
F1300
sg16
(F0.001952
F4.9200000000000003e-06
S'pb'
tp795
sS'maxCut'
p796
F10000000000
sg19
(I43652
I6348
tp797
stRp798
stRp799
stRp800
stRp801
sS'Lam22'
p802
g1
(g2
g3
(dp803
S'Des'
p804
g1
(g2
g3
(dp805
S'LL'
p806
g1
(g2
g3
(dp807
S'M300'
p808
g1
(g2
g3
(dp809
S'minCut'
p810
F300
sg16
(F0.55179999999999996
F0.0013799999999999999
S'pb'
tp811
sS'maxCut'
p812
F800
sg19
(I43561
I6439
tp813
stRp814
sS'M800'
p815
g1
(g2
g3
(dp816
S'minCut'
p817
F800
sg16
(F0.012869999999999999
F3.2610000000000001e-05
S'pb'
tp818
sS'maxCut'
p819
F1300
sg19
(I37966
I11352
tp820
stRp821
sS'M1300'
p822
g1
(g2
g3
(dp823
S'minCut'
p824
F1300
sg16
(F0.001578
F3.8970000000000001e-06
S'pb'
tp825
sS'maxCut'
p826
F10000000000
sg19
(I43642
I6358
tp827
stRp828
stRp829
sS'LR'
p830
g1
(g2
g3
(dp831
S'M300'
p832
g1
(g2
g3
(dp833
S'minCut'
p834
F300
sg16
(F0.55320000000000003
F0.001395
S'pb'
tp835
sS'maxCut'
p836
F800
sg19
(I43447
I6553
tp837
stRp838
sS'M800'
p839
g1
(g2
g3
(dp840
S'minCut'
p841
F800
sg16
(F0.01345
F3.3689999999999998e-05
S'pb'
tp842
sS'maxCut'
p843
F1300
sg19
(I37426
I12574
tp844
stRp845
sS'M1300'
p846
g1
(g2
g3
(dp847
S'minCut'
p848
F1300
sg16
(F0.002006
F4.6380000000000003e-06
S'pb'
tp849
sS'maxCut'
p850
F10000000000
sg19
(I44249
I5751
tp851
stRp852
stRp853
sS'RR'
p854
g1
(g2
g3
(dp855
S'M300'
p856
g1
(g2
g3
(dp857
S'minCut'
p858
F300
sg16
(F0.55300000000000005
F0.001384
S'pb'
tp859
sS'maxCut'
p860
F800
sg19
(I43416
I6584
tp861
stRp862
sS'M800'
p863
g1
(g2
g3
(dp864
S'minCut'
p865
F800
sg16
(F0.012880000000000001
F3.2410000000000003e-05
S'pb'
tp866
sS'maxCut'
p867
F1300
sg19
(I38387
I11613
tp868
stRp869
sS'M1300'
p870
g1
(g2
g3
(dp871
S'minCut'
p872
F1300
sg16
(F0.0015839999999999999
F3.8859999999999997e-06
S'pb'
tp873
sS'maxCut'
p874
F10000000000
sg19
(I43826
I6174
tp875
stRp876
stRp877
stRp878
sS'Con'
p879
g1
(g2
g3
(dp880
S'LL'
p881
g1
(g2
g3
(dp882
S'M300'
p883
g1
(g2
g3
(dp884
S'minCut'
p885
F300
sg16
(F0.56899999999999995
F0.0014289999999999999
S'pb'
tp886
sS'maxCut'
p887
F800
sg19
(I42676
I6574
tp888
stRp889
sS'M2000'
p890
g1
(g2
g3
(dp891
S'minCut'
p892
F2000
sg16
(F0.0010510000000000001
F2.9079999999999999e-06
S'pb'
tp893
sS'maxCut'
p894
F10000000000
sg19
(I43676
I5511
tp895
stRp896
sS'M800'
p897
g1
(g2
g3
(dp898
S'minCut'
p899
F800
sg16
(F0.015599999999999999
F3.9329999999999998e-05
S'pb'
tp900
sS'maxCut'
p901
F1300
sg19
(I37368
I12632
tp902
stRp903
sS'M1300'
p904
g1
(g2
g3
(dp905
S'minCut'
p906
F1300
sg16
(F0.0023900000000000002
F6.1029999999999998e-06
S'pb'
tp907
sS'maxCut'
p908
F2000
sg19
(I35828
I14172
tp909
stRp910
stRp911
sS'LR'
p912
g1
(g2
g3
(dp913
S'M300'
p914
g1
(g2
g3
(dp915
S'minCut'
p916
F300
sg16
(F0.57140000000000002
F0.0014139999999999999
S'pb'
tp917
sS'maxCut'
p918
F800
sg19
(I43341
I6659
tp919
stRp920
sS'M800'
p921
g1
(g2
g3
(dp922
S'minCut'
p923
F800
sg16
(F0.016639999999999999
F3.9350000000000001e-05
S'pb'
tp924
sS'maxCut'
p925
F1300
sg19
(I36543
I13457
tp926
stRp927
sS'M1300'
p928
g1
(g2
g3
(dp929
S'minCut'
p930
F1300
sg16
(F0.0028800000000000002
F6.9299999999999997e-06
S'pb'
tp931
sS'maxCut'
p932
F10000000000
sg19
(I44167
I5492
tp933
stRp934
stRp935
sS'RR'
p936
g1
(g2
g3
(dp937
S'M300'
p938
g1
(g2
g3
(dp939
S'minCut'
p940
F300
sg16
(F0.57030000000000003
F0.0014400000000000001
S'pb'
tp941
sS'maxCut'
p942
F800
sg19
(I42748
I6573
tp943
stRp944
sS'M800'
p945
g1
(g2
g3
(dp946
S'minCut'
p947
F800
sg16
(F0.01575
F3.9820000000000002e-05
S'pb'
tp948
sS'maxCut'
p949
F1300
sg19
(I37362
I12638
tp950
stRp951
sS'M1300'
p952
g1
(g2
g3
(dp953
S'minCut'
p954
F1300
sg16
(F0.002392
F6.263e-06
S'pb'
tp955
sS'maxCut'
p956
F10000000000
sg19
(I41874
I5716
tp957
stRp958
stRp959
stRp960
stRp961
sS'Lam34'
p962
g1
(g2
g3
(dp963
S'Des'
p964
g1
(g2
g3
(dp965
S'LL'
p966
g1
(g2
g3
(dp967
S'M300'
p968
g1
(g2
g3
(dp969
S'minCut'
p970
F300
sg16
(F0.55549999999999999
F0.001397
S'pb'
tp971
sS'maxCut'
p972
F800
sg19
(I43030
I6331
tp973
stRp974
sS'M800'
p975
g1
(g2
g3
(dp976
S'minCut'
p977
F800
sg16
(F0.012999999999999999
F3.2960000000000003e-05
S'pb'
tp978
sS'maxCut'
p979
F1300
sg19
(I38861
I11139
tp980
stRp981
sS'M1300'
p982
g1
(g2
g3
(dp983
S'minCut'
p984
F1300
sg16
(F0.001436
F3.591e-06
S'pb'
tp985
sS'maxCut'
p986
F10000000000
sg19
(I42940
I6763
tp987
stRp988
stRp989
sS'LR'
p990
g1
(g2
g3
(dp991
S'M300'
p992
g1
(g2
g3
(dp993
S'minCut'
p994
F300
sg16
(F0.55689999999999995
F0.0013990000000000001
S'pb'
tp995
sS'maxCut'
p996
F800
sg19
(I43593
I6407
tp997
stRp998
sS'M800'
p999
g1
(g2
g3
(dp1000
S'minCut'
p1001
F800
sg16
(F0.01311
F3.3590000000000002e-05
S'pb'
tp1002
sS'maxCut'
p1003
F1300
sg19
(I38838
I11162
tp1004
stRp1005
sS'M1300'
p1006
g1
(g2
g3
(dp1007
S'minCut'
p1008
F1300
sg16
(F0.001508
F3.7919999999999999e-06
S'pb'
tp1009
sS'maxCut'
p1010
F10000000000
sg19
(I43402
I6598
tp1011
stRp1012
stRp1013
sS'RR'
p1014
g1
(g2
g3
(dp1015
S'M300'
p1016
g1
(g2
g3
(dp1017
S'minCut'
p1018
F300
sg16
(F0.55269999999999997
F0.001384
S'pb'
tp1019
sS'maxCut'
p1020
F800
sg19
(I43664
I6336
tp1021
stRp1022
sS'M800'
p1023
g1
(g2
g3
(dp1024
S'minCut'
p1025
F800
sg16
(F0.012999999999999999
F3.2979999999999999e-05
S'pb'
tp1026
sS'maxCut'
p1027
F1300
sg19
(I38860
I11140
tp1028
stRp1029
sS'M1300'
p1030
g1
(g2
g3
(dp1031
S'minCut'
p1032
F1300
sg16
(F0.001433
F3.5659999999999998e-06
S'pb'
tp1033
sS'maxCut'
p1034
F10000000000
sg19
(I43132
I6868
tp1035
stRp1036
stRp1037
stRp1038
sS'Con'
p1039
g1
(g2
g3
(dp1040
S'LL'
p1041
g1
(g2
g3
(dp1042
S'M300'
p1043
g1
(g2
g3
(dp1044
S'minCut'
p1045
F300
sg16
(F0.5635
F0.0014139999999999999
S'pb'
tp1046
sS'maxCut'
p1047
F800
sg19
(I43523
I6477
tp1048
stRp1049
sS'M2000'
p1050
g1
(g2
g3
(dp1051
S'minCut'
p1052
F2000
sg16
(F0.00023560000000000001
F5.8650000000000002e-07
S'pb'
tp1053
sS'maxCut'
p1054
F10000000000
sg19
(I42386
I6714
tp1055
stRp1056
sS'M800'
p1057
g1
(g2
g3
(dp1058
S'minCut'
p1059
F800
sg16
(F0.014189999999999999
F3.6390000000000002e-05
S'pb'
tp1060
sS'maxCut'
p1061
F1300
sg19
(I37621
I11329
tp1062
stRp1063
sS'M1300'
p1064
g1
(g2
g3
(dp1065
S'minCut'
p1066
F1300
sg16
(F0.001779
F4.4800000000000003e-06
S'pb'
tp1067
sS'maxCut'
p1068
F2000
sg19
(I37908
I12092
tp1069
stRp1070
stRp1071
sS'LR'
p1072
g1
(g2
g3
(dp1073
S'M300'
p1074
g1
(g2
g3
(dp1075
S'minCut'
p1076
F300
sg16
(F0.56389999999999996
F0.0014009999999999999
S'pb'
tp1077
sS'maxCut'
p1078
F800
sg19
(I43468
I6532
tp1079
stRp1080
sS'M800'
p1081
g1
(g2
g3
(dp1082
S'minCut'
p1083
F800
sg16
(F0.01443
F3.5719999999999997e-05
S'pb'
tp1084
sS'maxCut'
p1085
F1300
sg19
(I38205
I11795
tp1086
stRp1087
sS'M1300'
p1088
g1
(g2
g3
(dp1089
S'minCut'
p1090
F1300
sg16
(F0.001874
F4.5059999999999997e-06
S'pb'
tp1091
sS'maxCut'
p1092
F10000000000
sg19
(I42413
I6319
tp1093
stRp1094
stRp1095
sS'RR'
p1096
g1
(g2
g3
(dp1097
S'M300'
p1098
g1
(g2
g3
(dp1099
S'minCut'
p1100
F300
sg16
(F0.56340000000000001
F0.0014090000000000001
S'pb'
tp1101
sS'maxCut'
p1102
F800
sg19
(I43428
I6572
tp1103
stRp1104
sS'M800'
p1105
g1
(g2
g3
(dp1106
S'minCut'
p1107
F800
sg16
(F0.01417
F3.6069999999999999e-05
S'pb'
tp1108
sS'maxCut'
p1109
F1300
sg19
(I37968
I11279
tp1110
stRp1111
sS'M1300'
p1112
g1
(g2
g3
(dp1113
S'minCut'
p1114
F1300
sg16
(F0.0017750000000000001
F4.4870000000000004e-06
S'pb'
tp1115
sS'maxCut'
p1116
F10000000000
sg19
(I43577
I6423
tp1117
stRp1118
stRp1119
stRp1120
stRp1121
stRp1122
sS'DYTo2E'
p1123
g1
(g2
g3
(dp1124
S'M300'
p1125
g1
(g2
g3
(dp1126
S'minCut'
p1127
F300
sg16
(F78420000000
F19.760000000000002
S'pb'
tp1128
sS'maxCut'
p1129
F800
sg19
(I0
I50000
tp1130
stRp1131
sS'M800'
p1132
g1
(g2
g3
(dp1133
S'minCut'
p1134
F800
sg16
(F78420000000
F0
S'pb'
tp1135
sS'maxCut'
p1136
F1300
sg19
(I0
I50000
tp1137
stRp1138
sS'M1300'
p1139
g1
(g2
g3
(dp1140
S'minCut'
p1141
F1300
sg16
(F78390000000
F0
S'pb'
tp1142
sS'maxCut'
p1143
F10000000000
sg19
(I0
I50000
tp1144
stRp1145
stRp1146
sS'DYTo2Mu'
p1147
g1
(g2
g3
(dp1148
S'M300'
p1149
g1
(g2
g3
(dp1150
S'minCut'
p1151
F300
sg16
(F0.56579999999999997
F0.0014239999999999999
S'pb'
tp1152
sS'maxCut'
p1153
F800
sg19
(I45381
I4619
tp1154
stRp1155
sS'M800'
p1156
g1
(g2
g3
(dp1157
S'minCut'
p1158
F800
sg16
(F0.014189999999999999
F3.608e-05
S'pb'
tp1159
sS'maxCut'
p1160
F1300
sg19
(I40568
I9432
tp1161
stRp1162
stRp1163
sS'CITo2Mu'
p1164
g1
(g2
g3
(dp1165
S'Lam10'
p1166
g1
(g2
g3
(dp1167
S'Des'
p1168
g1
(g2
g3
(dp1169
S'LL'
p1170
g1
(g2
g3
(dp1171
S'M300'
p1172
g1
(g2
g3
(dp1173
S'minCut'
p1174
F300
sg16
(F0.55220000000000002
F0.0013600000000000001
S'pb'
tp1175
sS'maxCut'
p1176
F800
sg19
(I47599
I2401
tp1177
stRp1178
sS'M800'
p1179
g1
(g2
g3
(dp1180
S'minCut'
p1181
F800
sg16
(F0.02605
F7.0909999999999997e-05
S'pb'
tp1182
sS'maxCut'
p1183
F1300
sg19
(I30411
I19589
tp1184
stRp1185
sS'M1300'
p1186
g1
(g2
g3
(dp1187
S'minCut'
p1188
F1300
sg16
(F0.010319999999999999
F2.7889999999999999e-05
S'pb'
tp1189
sS'maxCut'
p1190
F10000000000
sg19
(I50000
I0
tp1191
stRp1192
stRp1193
sS'LR'
p1194
g1
(g2
g3
(dp1195
S'M300'
p1196
g1
(g2
g3
(dp1197
S'minCut'
p1198
F300
sg16
(F0.57779999999999998
F0.0014159999999999999
S'pb'
tp1199
sS'maxCut'
p1200
F800
sg19
(I46138
I3862
tp1201
stRp1202
sS'M800'
p1203
g1
(g2
g3
(dp1204
S'minCut'
p1205
F800
sg16
(F0.059720000000000002
F0.00014109999999999999
S'pb'
tp1206
sS'maxCut'
p1207
F1300
sg19
(I29085
I20915
tp1208
stRp1209
sS'M1300'
p1210
g1
(g2
g3
(dp1211
S'minCut'
p1212
F1300
sg16
(F0.020840000000000001
F5.308e-05
S'pb'
tp1213
sS'maxCut'
p1214
F10000000000
sg19
(I50000
I0
tp1215
stRp1216
stRp1217
sS'RR'
p1218
g1
(g2
g3
(dp1219
S'M300'
p1220
g1
(g2
g3
(dp1221
S'minCut'
p1222
F300
sg16
(F0.54820000000000002
F0.001354
S'pb'
tp1223
sS'maxCut'
p1224
F800
sg19
(I47748
I2252
tp1225
stRp1226
sS'M800'
p1227
g1
(g2
g3
(dp1228
S'minCut'
p1229
F800
sg16
(F0.025829999999999999
F6.9779999999999999e-05
S'pb'
tp1230
sS'maxCut'
p1231
F1300
sg19
(I30182
I19818
tp1232
stRp1233
sS'M1300'
p1234
g1
(g2
g3
(dp1235
S'minCut'
p1236
F1300
sg16
(F0.0103
F2.756e-05
S'pb'
tp1237
sS'maxCut'
p1238
F10000000000
sg19
(I50000
I0
tp1239
stRp1240
stRp1241
stRp1242
sS'Con'
p1243
g1
(g2
g3
(dp1244
S'LL'
p1245
g1
(g2
g3
(dp1246
S'M300'
p1247
g1
(g2
g3
(dp1248
S'minCut'
p1249
F300
sg16
(F0.63109999999999999
F0.001549
S'pb'
tp1250
sS'maxCut'
p1251
F800
sg19
(I46839
I3161
tp1252
stRp1253
sS'M2000'
p1254
g1
(g2
g3
(dp1255
S'minCut'
p1256
F2000
sg16
(F0.0052350000000000001
F1.4810000000000001e-05
S'pb'
tp1257
sS'maxCut'
p1258
F10000000000
sg19
(I50000
I0
tp1259
stRp1260
sS'M800'
p1261
g1
(g2
g3
(dp1262
S'minCut'
p1263
F800
sg16
(F0.039699999999999999
F0.0001132
S'pb'
tp1264
sS'maxCut'
p1265
F1300
sg19
(I31987
I18013
tp1266
stRp1267
sS'M1300'
p1268
g1
(g2
g3
(dp1269
S'minCut'
p1270
F1300
sg16
(F0.01423
F4.0009999999999998e-05
S'pb'
tp1271
sS'maxCut'
p1272
F2000
sg19
(I31659
I18341
tp1273
stRp1274
stRp1275
sS'LR'
p1276
g1
(g2
g3
(dp1277
S'M300'
p1278
g1
(g2
g3
(dp1279
S'minCut'
p1280
F300
sg16
(F0.67989999999999995
F0.0015820000000000001
S'pb'
tp1281
sS'maxCut'
p1282
F800
sg19
(I45641
I4359
tp1283
stRp1284
sS'M800'
p1285
g1
(g2
g3
(dp1286
S'minCut'
p1287
F800
sg16
(F0.059720000000000002
F0.00014109999999999999
S'pb'
tp1288
sS'maxCut'
p1289
F1300
sg19
(I29085
I20915
tp1290
stRp1291
sS'M1300'
p1292
g1
(g2
g3
(dp1293
S'minCut'
p1294
F1300
sg16
(F0.024979999999999999
F6.6190000000000002e-05
S'pb'
tp1295
sS'maxCut'
p1296
F10000000000
sg19
(I50000
I0
tp1297
stRp1298
stRp1299
sS'RR'
p1300
g1
(g2
g3
(dp1301
S'M300'
p1302
g1
(g2
g3
(dp1303
S'minCut'
p1304
F300
sg16
(F0.63729999999999998
F0.0015759999999999999
S'pb'
tp1305
sS'maxCut'
p1306
F800
sg19
(I46953
I3047
tp1307
stRp1308
sS'M800'
p1309
g1
(g2
g3
(dp1310
S'minCut'
p1311
F800
sg16
(F0.039800000000000002
F0.0001137
S'pb'
tp1312
sS'maxCut'
p1313
F1300
sg19
(I32306
I17694
tp1314
stRp1315
sS'M1300'
p1316
g1
(g2
g3
(dp1317
S'minCut'
p1318
F1300
sg16
(F0.014189999999999999
F3.9919999999999997e-05
S'pb'
tp1319
sS'maxCut'
p1320
F10000000000
sg19
(I50000
I0
tp1321
stRp1322
stRp1323
stRp1324
stRp1325
sS'Lam100k'
p1326
g1
(g2
g3
(dp1327
S'Des'
p1328
g1
(g2
g3
(dp1329
S'LL'
p1330
g1
(g2
g3
(dp1331
S'M300'
p1332
g1
(g2
g3
(dp1333
S'minCut'
p1334
F300
sg16
(F0.55720000000000003
F0.001389
S'pb'
tp1335
sS'maxCut'
p1336
F800
sg19
(I45520
I4480
tp1337
stRp1338
sS'M800'
p1339
g1
(g2
g3
(dp1340
S'minCut'
p1341
F800
sg16
(F0.013429999999999999
F3.4079999999999999e-05
S'pb'
tp1342
sS'maxCut'
p1343
F1300
sg19
(I40706
I9294
tp1344
stRp1345
sS'M1300'
p1346
g1
(g2
g3
(dp1347
S'minCut'
p1348
F1300
sg16
(F0.001519
F3.9330000000000003e-06
S'pb'
tp1349
sS'maxCut'
p1350
F10000000000
sg19
(I42858
I4642
tp1351
stRp1352
stRp1353
sS'LR'
p1354
g1
(g2
g3
(dp1355
S'M300'
p1356
g1
(g2
g3
(dp1357
S'minCut'
p1358
F300
sg16
(F0.55889999999999995
F0.001408
S'pb'
tp1359
sS'maxCut'
p1360
F800
sg19
(I45038
I4462
tp1361
stRp1362
sS'M800'
p1363
g1
(g2
g3
(dp1364
S'minCut'
p1365
F800
sg16
(F0.01345
F3.4650000000000002e-05
S'pb'
tp1366
sS'maxCut'
p1367
F1300
sg19
(I39388
I9112
tp1368
stRp1369
sS'M1300'
p1370
g1
(g2
g3
(dp1371
S'minCut'
p1372
F1300
sg16
(F0.001523
F3.8349999999999997e-06
S'pb'
tp1373
sS'maxCut'
p1374
F10000000000
sg19
(I45041
I4959
tp1375
stRp1376
stRp1377
sS'RR'
p1378
g1
(g2
g3
(dp1379
S'M300'
p1380
g1
(g2
g3
(dp1381
S'minCut'
p1382
F300
sg16
(F0.55659999999999998
F0.0013910000000000001
S'pb'
tp1383
sS'maxCut'
p1384
F800
sg19
(I45335
I4665
tp1385
stRp1386
sS'M800'
p1387
g1
(g2
g3
(dp1388
S'minCut'
p1389
F800
sg16
(F0.0134
F3.4060000000000003e-05
S'pb'
tp1390
sS'maxCut'
p1391
F1300
sg19
(I40408
I9592
tp1392
stRp1393
sS'M1300'
p1394
g1
(g2
g3
(dp1395
S'minCut'
p1396
F1300
sg16
(F0.001524
F3.8399999999999997e-06
S'pb'
tp1397
sS'maxCut'
p1398
F10000000000
sg19
(I45086
I4914
tp1399
stRp1400
stRp1401
stRp1402
sS'Con'
p1403
g1
(g2
g3
(dp1404
S'LL'
p1405
g1
(g2
g3
(dp1406
S'M300'
p1407
g1
(g2
g3
(dp1408
S'minCut'
p1409
F300
sg16
(F0.55910000000000004
F0.0013979999999999999
S'pb'
tp1410
sS'maxCut'
p1411
F800
sg19
(I45432
I4568
tp1412
stRp1413
sS'M2000'
p1414
g1
(g2
g3
(dp1415
S'minCut'
p1416
F2000
sg16
(F0.0001582
F3.8270000000000001e-07
S'pb'
tp1417
sS'maxCut'
p1418
F10000000000
sg19
(I50000
I0
tp1419
stRp1420
sS'M800'
p1421
g1
(g2
g3
(dp1422
S'minCut'
p1423
F800
sg16
(F0.01345
F3.4230000000000003e-05
S'pb'
tp1424
sS'maxCut'
p1425
F1300
sg19
(I40261
I9239
tp1426
stRp1427
sS'M1300'
p1428
g1
(g2
g3
(dp1429
S'minCut'
p1430
F1300
sg16
(F0.001526
F3.8419999999999998e-06
S'pb'
tp1431
sS'maxCut'
p1432
F2000
sg19
(I40498
I9502
tp1433
stRp1434
stRp1435
sS'LR'
p1436
g1
(g2
g3
(dp1437
S'M300'
p1438
g1
(g2
g3
(dp1439
S'minCut'
p1440
F300
sg16
(F0.55940000000000001
F0.001402
S'pb'
tp1441
sS'maxCut'
p1442
F800
sg19
(I45547
I4453
tp1443
stRp1444
sS'M800'
p1445
g1
(g2
g3
(dp1446
S'minCut'
p1447
F800
sg16
(F0.01345
F3.4659999999999997e-05
S'pb'
tp1448
sS'maxCut'
p1449
F1300
sg19
(I43013
I5487
tp1450
stRp1451
sS'M1300'
p1452
g1
(g2
g3
(dp1453
S'minCut'
p1454
F1300
sg16
(F0.001519
F3.8240000000000001e-06
S'pb'
tp1455
sS'maxCut'
p1456
F10000000000
sg19
(I45043
I4957
tp1457
stRp1458
stRp1459
sS'RR'
p1460
g1
(g2
g3
(dp1461
S'M300'
p1462
g1
(g2
g3
(dp1463
S'minCut'
p1464
F300
sg16
(F0.55679999999999996
F0.0013929999999999999
S'pb'
tp1465
sS'maxCut'
p1466
F800
sg19
(I45511
I4489
tp1467
stRp1468
sS'M800'
p1469
g1
(g2
g3
(dp1470
S'minCut'
p1471
F800
sg16
(F0.01337
F3.4310000000000002e-05
S'pb'
tp1472
sS'maxCut'
p1473
F1300
sg19
(I39851
I9149
tp1474
stRp1475
sS'M1300'
p1476
g1
(g2
g3
(dp1477
S'minCut'
p1478
F1300
sg16
(F0.001516
F3.8089999999999999e-06
S'pb'
tp1479
sS'maxCut'
p1480
F10000000000
sg19
(I45193
I4807
tp1481
stRp1482
stRp1483
stRp1484
stRp1485
sS'Lam1'
p1486
g1
(g2
g3
(dp1487
S'Des'
p1488
g1
(g2
g3
(dp1489
S'LL'
p1490
g1
(g2
g3
(dp1491
S'M300'
p1492
g1
(g2
g3
(dp1493
S'minCut'
p1494
F300
sg16
(F364.80000000000001
F0.92269999999999996
S'pb'
tp1495
sS'maxCut'
p1496
F800
sg19
(I21867
I28133
tp1497
stRp1498
sS'M800'
p1499
g1
(g2
g3
(dp1500
S'minCut'
p1501
F800
sg16
(F207.19999999999999
F0.52470000000000006
S'pb'
tp1502
sS'maxCut'
p1503
F1300
sg19
(I21621
I28379
tp1504
stRp1505
sS'M1300'
p1506
g1
(g2
g3
(dp1507
S'minCut'
p1508
F1300
sg16
(F116.5
F0.31929999999999997
S'pb'
tp1509
sS'maxCut'
p1510
F10000000000
sg19
(I45828
I2588
tp1511
stRp1512
stRp1513
sS'LR'
p1514
g1
(g2
g3
(dp1515
S'M300'
p1516
g1
(g2
g3
(dp1517
S'minCut'
p1518
F300
sg16
(F733.29999999999995
F1.8819999999999999
S'pb'
tp1519
sS'maxCut'
p1520
F800
sg19
(I21209
I27573
tp1521
stRp1522
sS'M800'
p1523
g1
(g2
g3
(dp1524
S'minCut'
p1525
F800
sg16
(F414.39999999999998
F1.05
S'pb'
tp1526
sS'maxCut'
p1527
F1300
sg19
(I21618
I28382
tp1528
stRp1529
sS'M1300'
p1530
g1
(g2
g3
(dp1531
S'minCut'
p1532
F1300
sg16
(F232.59999999999999
F0.63160000000000005
S'pb'
tp1533
sS'maxCut'
p1534
F10000000000
sg19
(I46615
I2585
tp1535
stRp1536
stRp1537
sS'RR'
p1538
g1
(g2
g3
(dp1539
S'M300'
p1540
g1
(g2
g3
(dp1541
S'minCut'
p1542
F300
sg16
(F364.60000000000002
F0.93220000000000003
S'pb'
tp1543
sS'maxCut'
p1544
F800
sg19
(I21525
I27675
tp1545
stRp1546
sS'M800'
p1547
g1
(g2
g3
(dp1548
S'minCut'
p1549
F800
sg16
(F207.40000000000001
F0.52359999999999995
S'pb'
tp1550
sS'maxCut'
p1551
F1300
sg19
(I21306
I28694
tp1552
stRp1553
sS'M1300'
p1554
g1
(g2
g3
(dp1555
S'minCut'
p1556
F1300
sg16
(F115.90000000000001
F0.32129999999999997
S'pb'
tp1557
sS'maxCut'
p1558
F10000000000
sg19
(I45111
I2459
tp1559
stRp1560
stRp1561
stRp1562
sS'Con'
p1563
g1
(g2
g3
(dp1564
S'LL'
p1565
g1
(g2
g3
(dp1566
S'M300'
p1567
g1
(g2
g3
(dp1568
S'minCut'
p1569
F300
sg16
(F372.69999999999999
F0.93940000000000001
S'pb'
tp1570
sS'maxCut'
p1571
F800
sg19
(I22317
I27683
tp1572
stRp1573
sS'M2000'
p1574
g1
(g2
g3
(dp1575
S'minCut'
p1576
F2000
sg16
(F49.840000000000003
F0.14180000000000001
S'pb'
tp1577
sS'maxCut'
p1578
F10000000000
sg19
(I46288
I3712
tp1579
stRp1580
sS'M800'
p1581
g1
(g2
g3
(dp1582
S'minCut'
p1583
F800
sg16
(F208.80000000000001
F0.54149999999999998
S'pb'
tp1584
sS'maxCut'
p1585
F1300
sg19
(I20683
I26853
tp1586
stRp1587
sS'M1300'
p1588
g1
(g2
g3
(dp1589
S'minCut'
p1590
F1300
sg16
(F116.8
F0.31440000000000001
S'pb'
tp1591
sS'maxCut'
p1592
F2000
sg19
(I27571
I22429
tp1593
stRp1594
stRp1595
sS'LR'
p1596
g1
(g2
g3
(dp1597
S'M300'
p1598
g1
(g2
g3
(dp1599
S'minCut'
p1600
F300
sg16
(F742.20000000000005
F1.875
S'pb'
tp1601
sS'maxCut'
p1602
F800
sg19
(I22081
I27919
tp1603
stRp1604
sS'M800'
p1605
g1
(g2
g3
(dp1606
S'minCut'
p1607
F800
sg16
(F417
F1.052
S'pb'
tp1608
sS'maxCut'
p1609
F1300
sg19
(I21717
I28283
tp1610
stRp1611
sS'M1300'
p1612
g1
(g2
g3
(dp1613
S'minCut'
p1614
F1300
sg16
(F233.5
F0.63949999999999996
S'pb'
tp1615
sS'maxCut'
p1616
F10000000000
sg19
(I46159
I2551
tp1617
stRp1618
stRp1619
sS'RR'
p1620
g1
(g2
g3
(dp1621
S'M300'
p1622
g1
(g2
g3
(dp1623
S'minCut'
p1624
F300
sg16
(F373.19999999999999
F0.96589999999999998
S'pb'
tp1625
sS'maxCut'
p1626
F800
sg19
(I21450
I26070
tp1627
stRp1628
sS'M800'
p1629
g1
(g2
g3
(dp1630
S'minCut'
p1631
F800
sg16
(F209
F0.53200000000000003
S'pb'
tp1632
sS'maxCut'
p1633
F1300
sg19
(I21515
I28485
tp1634
stRp1635
sS'M1300'
p1636
g1
(g2
g3
(dp1637
S'minCut'
p1638
F1300
sg16
(F116.7
F0.31359999999999999
S'pb'
tp1639
sS'maxCut'
p1640
F10000000000
sg19
(I47384
I2616
tp1641
stRp1642
stRp1643
stRp1644
stRp1645
sS'Lam16'
p1646
g1
(g2
g3
(dp1647
S'Des'
p1648
g1
(g2
g3
(dp1649
S'LL'
p1650
g1
(g2
g3
(dp1651
S'M300'
p1652
g1
(g2
g3
(dp1653
S'minCut'
p1654
F300
sg16
(F0.54869999999999997
F0.001372
S'pb'
tp1655
sS'maxCut'
p1656
F800
sg19
(I45496
I4504
tp1657
stRp1658
sS'M800'
p1659
g1
(g2
g3
(dp1660
S'minCut'
p1661
F800
sg16
(F0.013769999999999999
F3.4860000000000002e-05
S'pb'
tp1662
sS'maxCut'
p1663
F1300
sg19
(I36907
I11695
tp1664
stRp1665
sS'M1300'
p1666
g1
(g2
g3
(dp1667
S'minCut'
p1668
F1300
sg16
(F0.0024039999999999999
F6.2230000000000004e-06
S'pb'
tp1669
sS'maxCut'
p1670
F10000000000
sg19
(I46352
I3648
tp1671
stRp1672
stRp1673
sS'LR'
p1674
g1
(g2
g3
(dp1675
S'M300'
p1676
g1
(g2
g3
(dp1677
S'minCut'
p1678
F300
sg16
(F0.55120000000000002
F0.001421
S'pb'
tp1679
sS'maxCut'
p1680
F800
sg19
(I43205
I4455
tp1681
stRp1682
sS'M800'
p1683
g1
(g2
g3
(dp1684
S'minCut'
p1685
F800
sg16
(F0.016330000000000001
F3.8500000000000001e-05
S'pb'
tp1686
sS'maxCut'
p1687
F1300
sg19
(I34985
I15015
tp1688
stRp1689
sS'M1300'
p1690
g1
(g2
g3
(dp1691
S'minCut'
p1692
F1300
sg16
(F0.0039830000000000004
F1.007e-05
S'pb'
tp1693
sS'maxCut'
p1694
F10000000000
sg19
(I46946
I3054
tp1695
stRp1696
stRp1697
sS'RR'
p1698
g1
(g2
g3
(dp1699
S'M300'
p1700
g1
(g2
g3
(dp1701
S'minCut'
p1702
F300
sg16
(F0.55000000000000004
F0.0013749999999999999
S'pb'
tp1703
sS'maxCut'
p1704
F800
sg19
(I45530
I4470
tp1705
stRp1706
sS'M800'
p1707
g1
(g2
g3
(dp1708
S'minCut'
p1709
F800
sg16
(F0.01367
F3.3769999999999997e-05
S'pb'
tp1710
sS'maxCut'
p1711
F1300
sg19
(I37947
I12053
tp1712
stRp1713
sS'M1300'
p1714
g1
(g2
g3
(dp1715
S'minCut'
p1716
F1300
sg16
(F0.0024030000000000002
F6.2999999999999998e-06
S'pb'
tp1717
sS'maxCut'
p1718
F10000000000
sg19
(I44792
I3450
tp1719
stRp1720
stRp1721
stRp1722
sS'Con'
p1723
g1
(g2
g3
(dp1724
S'LL'
p1725
g1
(g2
g3
(dp1726
S'M300'
p1727
g1
(g2
g3
(dp1728
S'minCut'
p1729
F300
sg16
(F0.57979999999999998
F0.001446
S'pb'
tp1730
sS'maxCut'
p1731
F800
sg19
(I48460
I1540
tp1732
stRp1733
sS'M2000'
p1734
g1
(g2
g3
(dp1735
S'minCut'
p1736
F2000
sg16
(F0.001052
F2.8820000000000001e-06
S'pb'
tp1737
sS'maxCut'
p1738
F10000000000
sg19
(I46087
I3913
tp1739
stRp1740
sS'M800'
p1741
g1
(g2
g3
(dp1742
S'minCut'
p1743
F800
sg16
(F0.019019999999999999
F4.8170000000000001e-05
S'pb'
tp1744
sS'maxCut'
p1745
F1300
sg19
(I36980
I13020
tp1746
stRp1747
sS'M1300'
p1748
g1
(g2
g3
(dp1749
S'minCut'
p1750
F1300
sg16
(F0.0039090000000000001
F1.0499999999999999e-05
S'pb'
tp1751
sS'maxCut'
p1752
F2000
sg19
(I34090
I15910
tp1753
stRp1754
stRp1755
sS'LR'
p1756
g1
(g2
g3
(dp1757
S'M300'
p1758
g1
(g2
g3
(dp1759
S'minCut'
p1760
F300
sg16
(F0.58960000000000001
F0.001441
S'pb'
tp1761
sS'maxCut'
p1762
F800
sg19
(I45021
I4979
tp1763
stRp1764
sS'M800'
p1765
g1
(g2
g3
(dp1766
S'minCut'
p1767
F800
sg16
(F0.022349999999999998
F5.2240000000000001e-05
S'pb'
tp1768
sS'maxCut'
p1769
F1300
sg19
(I35031
I14969
tp1770
stRp1771
sS'M1300'
p1772
g1
(g2
g3
(dp1773
S'minCut'
p1774
F1300
sg16
(F0.0056280000000000002
F1.577e-05
S'pb'
tp1775
sS'maxCut'
p1776
F10000000000
sg19
(I46756
I3244
tp1777
stRp1778
stRp1779
sS'RR'
p1780
g1
(g2
g3
(dp1781
S'M300'
p1782
g1
(g2
g3
(dp1783
S'minCut'
p1784
F300
sg16
(F0.58350000000000002
F0.001449
S'pb'
tp1785
sS'maxCut'
p1786
F800
sg19
(I45406
I4594
tp1787
stRp1788
sS'M800'
p1789
g1
(g2
g3
(dp1790
S'minCut'
p1791
F800
sg16
(F0.019120000000000002
F4.8550000000000001e-05
S'pb'
tp1792
sS'maxCut'
p1793
F1300
sg19
(I37075
I12925
tp1794
stRp1795
sS'M1300'
p1796
g1
(g2
g3
(dp1797
S'minCut'
p1798
F1300
sg16
(F0.0039389999999999998
F1.061e-05
S'pb'
tp1799
sS'maxCut'
p1800
F10000000000
sg19
(I46403
I3597
tp1801
stRp1802
stRp1803
stRp1804
stRp1805
sS'Lam28'
p1806
g1
(g2
g3
(dp1807
S'Des'
p1808
g1
(g2
g3
(dp1809
S'LL'
p1810
g1
(g2
g3
(dp1811
S'M300'
p1812
g1
(g2
g3
(dp1813
S'minCut'
p1814
F300
sg16
(F0.55510000000000004
F0.0013910000000000001
S'pb'
tp1815
sS'maxCut'
p1816
F800
sg19
(I45684
I4316
tp1817
stRp1818
sS'M800'
p1819
g1
(g2
g3
(dp1820
S'minCut'
p1821
F800
sg16
(F0.01286
F3.252e-05
S'pb'
tp1822
sS'maxCut'
p1823
F1300
sg19
(I40871
I9129
tp1824
stRp1825
sS'M1300'
p1826
g1
(g2
g3
(dp1827
S'minCut'
p1828
F1300
sg16
(F0.0014549999999999999
F3.6169999999999998e-06
S'pb'
tp1829
sS'maxCut'
p1830
F10000000000
sg19
(I45240
I4760
tp1831
stRp1832
stRp1833
sS'LR'
p1834
g1
(g2
g3
(dp1835
S'M300'
p1836
g1
(g2
g3
(dp1837
S'minCut'
p1838
F300
sg16
(F0.55330000000000001
F0.001395
S'pb'
tp1839
sS'maxCut'
p1840
F800
sg19
(I45658
I4342
tp1841
stRp1842
sS'M800'
p1843
g1
(g2
g3
(dp1844
S'minCut'
p1845
F800
sg16
(F0.01308
F3.3290000000000001e-05
S'pb'
tp1846
sS'maxCut'
p1847
F1300
sg19
(I40413
I9587
tp1848
stRp1849
sS'M1300'
p1850
g1
(g2
g3
(dp1851
S'minCut'
p1852
F1300
sg16
(F0.0016130000000000001
F3.9539999999999998e-06
S'pb'
tp1853
sS'maxCut'
p1854
F10000000000
sg19
(I45618
I4382
tp1855
stRp1856
stRp1857
sS'RR'
p1858
g1
(g2
g3
(dp1859
S'M300'
p1860
g1
(g2
g3
(dp1861
S'minCut'
p1862
F300
sg16
(F0.55520000000000003
F0.00139
S'pb'
tp1863
sS'maxCut'
p1864
F800
sg19
(I45657
I4343
tp1865
stRp1866
sS'M800'
p1867
g1
(g2
g3
(dp1868
S'minCut'
p1869
F800
sg16
(F0.012840000000000001
F3.243e-05
S'pb'
tp1870
sS'maxCut'
p1871
F1300
sg19
(I40695
I9305
tp1872
stRp1873
sS'M1300'
p1874
g1
(g2
g3
(dp1875
S'minCut'
p1876
F1300
sg16
(F0.001454
F3.6210000000000001e-06
S'pb'
tp1877
sS'maxCut'
p1878
F10000000000
sg19
(I45377
I4623
tp1879
stRp1880
stRp1881
stRp1882
sS'Con'
p1883
g1
(g2
g3
(dp1884
S'LL'
p1885
g1
(g2
g3
(dp1886
S'M300'
p1887
g1
(g2
g3
(dp1888
S'minCut'
p1889
F300
sg16
(F0.56579999999999997
F0.0014189999999999999
S'pb'
tp1890
sS'maxCut'
p1891
F800
sg19
(I45614
I4386
tp1892
stRp1893
sS'M2000'
p1894
g1
(g2
g3
(dp1895
S'minCut'
p1896
F2000
sg16
(F0.00029530000000000002
F7.357e-07
S'pb'
tp1897
sS'maxCut'
p1898
F10000000000
sg19
(I45272
I4728
tp1899
stRp1900
sS'M800'
p1901
g1
(g2
g3
(dp1902
S'minCut'
p1903
F800
sg16
(F0.014590000000000001
F3.6999999999999998e-05
S'pb'
tp1904
sS'maxCut'
p1905
F1300
sg19
(I39974
I10026
tp1906
stRp1907
sS'M1300'
p1908
g1
(g2
g3
(dp1909
S'minCut'
p1910
F1300
sg16
(F0.001946
F4.9189999999999998e-06
S'pb'
tp1911
sS'maxCut'
p1912
F2000
sg19
(I38700
I11300
tp1913
stRp1914
stRp1915
sS'LR'
p1916
g1
(g2
g3
(dp1917
S'M300'
p1918
g1
(g2
g3
(dp1919
S'minCut'
p1920
F300
sg16
(F0.56850000000000001
F0.001418
S'pb'
tp1921
sS'maxCut'
p1922
F800
sg19
(I45529
I4471
tp1923
stRp1924
sS'M800'
p1925
g1
(g2
g3
(dp1926
S'minCut'
p1927
F800
sg16
(F0.01508
F3.6690000000000003e-05
S'pb'
tp1928
sS'maxCut'
p1929
F1300
sg19
(I39459
I10541
tp1930
stRp1931
sS'M1300'
p1932
g1
(g2
g3
(dp1933
S'minCut'
p1934
F1300
sg16
(F0.00214
F5.0080000000000002e-06
S'pb'
tp1935
sS'maxCut'
p1936
F10000000000
sg19
(I45851
I4149
tp1937
stRp1938
stRp1939
sS'RR'
p1940
g1
(g2
g3
(dp1941
S'M300'
p1942
g1
(g2
g3
(dp1943
S'minCut'
p1944
F300
sg16
(F0.56459999999999999
F0.0014120000000000001
S'pb'
tp1945
sS'maxCut'
p1946
F800
sg19
(I45516
I4484
tp1947
stRp1948
sS'M800'
p1949
g1
(g2
g3
(dp1950
S'minCut'
p1951
F800
sg16
(F0.01465
F3.7079999999999997e-05
S'pb'
tp1952
sS'maxCut'
p1953
F1300
sg19
(I39915
I10085
tp1954
stRp1955
sS'M1300'
p1956
g1
(g2
g3
(dp1957
S'minCut'
p1958
F1300
sg16
(F0.0019449999999999999
F4.9200000000000003e-06
S'pb'
tp1959
sS'maxCut'
p1960
F10000000000
sg19
(I45599
I4401
tp1961
stRp1962
stRp1963
stRp1964
stRp1965
sS'Lam22'
p1966
g1
(g2
g3
(dp1967
S'Des'
p1968
g1
(g2
g3
(dp1969
S'LL'
p1970
g1
(g2
g3
(dp1971
S'M300'
p1972
g1
(g2
g3
(dp1973
S'minCut'
p1974
F300
sg16
(F0.55069999999999997
F0.0013810000000000001
S'pb'
tp1975
sS'maxCut'
p1976
F800
sg19
(I45681
I4319
tp1977
stRp1978
sS'M800'
p1979
g1
(g2
g3
(dp1980
S'minCut'
p1981
F800
sg16
(F0.012800000000000001
F3.2289999999999997e-05
S'pb'
tp1982
sS'maxCut'
p1983
F1300
sg19
(I40215
I9785
tp1984
stRp1985
sS'M1300'
p1986
g1
(g2
g3
(dp1987
S'minCut'
p1988
F1300
sg16
(F0.001573
F3.8859999999999997e-06
S'pb'
tp1989
sS'maxCut'
p1990
F10000000000
sg19
(I45594
I4406
tp1991
stRp1992
stRp1993
sS'LR'
p1994
g1
(g2
g3
(dp1995
S'M300'
p1996
g1
(g2
g3
(dp1997
S'minCut'
p1998
F300
sg16
(F0.55149999999999999
F0.0013849999999999999
S'pb'
tp1999
sS'maxCut'
p2000
F800
sg19
(I45678
I4322
tp2001
stRp2002
sS'M800'
p2003
g1
(g2
g3
(dp2004
S'minCut'
p2005
F800
sg16
(F0.01353
F3.3819999999999998e-05
S'pb'
tp2006
sS'maxCut'
p2007
F1300
sg19
(I39238
I10762
tp2008
stRp2009
sS'M1300'
p2010
g1
(g2
g3
(dp2011
S'minCut'
p2012
F1300
sg16
(F0.002006
F4.6269999999999999e-06
S'pb'
tp2013
sS'maxCut'
p2014
F10000000000
sg19
(I46081
I3919
tp2015
stRp2016
stRp2017
sS'RR'
p2018
g1
(g2
g3
(dp2019
S'M300'
p2020
g1
(g2
g3
(dp2021
S'minCut'
p2022
F300
sg16
(F0.54900000000000004
F0.0013730000000000001
S'pb'
tp2023
sS'maxCut'
p2024
F800
sg19
(I45597
I4403
tp2025
stRp2026
sS'M800'
p2027
g1
(g2
g3
(dp2028
S'minCut'
p2029
F800
sg16
(F0.012789999999999999
F3.2199999999999997e-05
S'pb'
tp2030
sS'maxCut'
p2031
F1300
sg19
(I40311
I9689
tp2032
stRp2033
sS'M1300'
p2034
g1
(g2
g3
(dp2035
S'minCut'
p2036
F1300
sg16
(F0.00158
F3.9060000000000004e-06
S'pb'
tp2037
sS'maxCut'
p2038
F10000000000
sg19
(I45547
I4453
tp2039
stRp2040
stRp2041
stRp2042
sS'Con'
p2043
g1
(g2
g3
(dp2044
S'LL'
p2045
g1
(g2
g3
(dp2046
S'M300'
p2047
g1
(g2
g3
(dp2048
S'minCut'
p2049
F300
sg16
(F0.57120000000000004
F0.001428
S'pb'
tp2050
sS'maxCut'
p2051
F800
sg19
(I45470
I4530
tp2052
stRp2053
sS'M2000'
p2054
g1
(g2
g3
(dp2055
S'minCut'
p2056
F2000
sg16
(F0.0004548
F1.1769999999999999e-06
S'pb'
tp2057
sS'maxCut'
p2058
F10000000000
sg19
(I45585
I4415
tp2059
stRp2060
sS'M800'
p2061
g1
(g2
g3
(dp2062
S'minCut'
p2063
F800
sg16
(F0.015699999999999999
F3.9700000000000003e-05
S'pb'
tp2064
sS'maxCut'
p2065
F1300
sg19
(I39175
I10825
tp2066
stRp2067
sS'M1300'
p2068
g1
(g2
g3
(dp2069
S'minCut'
p2070
F1300
sg16
(F0.0023930000000000002
F6.1149999999999999e-06
S'pb'
tp2071
sS'maxCut'
p2072
F2000
sg19
(I37163
I12837
tp2073
stRp2074
stRp2075
sS'LR'
p2076
g1
(g2
g3
(dp2077
S'M300'
p2078
g1
(g2
g3
(dp2079
S'minCut'
p2080
F300
sg16
(F0.57189999999999996
F0.0014170000000000001
S'pb'
tp2081
sS'maxCut'
p2082
F800
sg19
(I45371
I4629
tp2083
stRp2084
sS'M800'
p2085
g1
(g2
g3
(dp2086
S'minCut'
p2087
F800
sg16
(F0.016660000000000001
F3.9400000000000002e-05
S'pb'
tp2088
sS'maxCut'
p2089
F1300
sg19
(I38450
I11550
tp2090
stRp2091
sS'M1300'
p2092
g1
(g2
g3
(dp2093
S'minCut'
p2094
F1300
sg16
(F0.0028649999999999999
F6.8940000000000004e-06
S'pb'
tp2095
sS'maxCut'
p2096
F10000000000
sg19
(I46036
I3964
tp2097
stRp2098
stRp2099
sS'RR'
p2100
g1
(g2
g3
(dp2101
S'M300'
p2102
g1
(g2
g3
(dp2103
S'minCut'
p2104
F300
sg16
(F0.57040000000000002
F0.0014289999999999999
S'pb'
tp2105
sS'maxCut'
p2106
F800
sg19
(I45499
I4501
tp2107
stRp2108
sS'M800'
p2109
g1
(g2
g3
(dp2110
S'minCut'
p2111
F800
sg16
(F0.015720000000000001
F3.9730000000000001e-05
S'pb'
tp2112
sS'maxCut'
p2113
F1300
sg19
(I39121
I10879
tp2114
stRp2115
sS'M1300'
p2116
g1
(g2
g3
(dp2117
S'minCut'
p2118
F1300
sg16
(F0.0024020000000000001
F6.1480000000000003e-06
S'pb'
tp2119
sS'maxCut'
p2120
F10000000000
sg19
(I45862
I4138
tp2121
stRp2122
stRp2123
stRp2124
stRp2125
sS'Lam34'
p2126
g1
(g2
g3
(dp2127
S'Des'
p2128
g1
(g2
g3
(dp2129
S'LL'
p2130
g1
(g2
g3
(dp2131
S'M300'
p2132
g1
(g2
g3
(dp2133
S'minCut'
p2134
F300
sg16
(F0.55740000000000001
F0.0013940000000000001
S'pb'
tp2135
sS'maxCut'
p2136
F800
sg19
(I45734
I4266
tp2137
stRp2138
sS'M800'
p2139
g1
(g2
g3
(dp2140
S'minCut'
p2141
F800
sg16
(F0.012970000000000001
F3.2839999999999997e-05
S'pb'
tp2142
sS'maxCut'
p2143
F1300
sg19
(I41005
I8995
tp2144
stRp2145
sS'M1300'
p2146
g1
(g2
g3
(dp2147
S'minCut'
p2148
F1300
sg16
(F0.001436
F3.585e-06
S'pb'
tp2149
sS'maxCut'
p2150
F10000000000
sg19
(I45222
I4778
tp2151
stRp2152
stRp2153
sS'LR'
p2154
g1
(g2
g3
(dp2155
S'M300'
p2156
g1
(g2
g3
(dp2157
S'minCut'
p2158
F300
sg16
(F0.55500000000000005
F0.0013940000000000001
S'pb'
tp2159
sS'maxCut'
p2160
F800
sg19
(I45626
I4374
tp2161
stRp2162
sS'M800'
p2163
g1
(g2
g3
(dp2164
S'minCut'
p2165
F800
sg16
(F0.01307
F3.3470000000000003e-05
S'pb'
tp2166
sS'maxCut'
p2167
F1300
sg19
(I40512
I9488
tp2168
stRp2169
sS'M1300'
p2170
g1
(g2
g3
(dp2171
S'minCut'
p2172
F1300
sg16
(F0.001508
F3.7960000000000002e-06
S'pb'
tp2173
sS'maxCut'
p2174
F10000000000
sg19
(I45467
I4533
tp2175
stRp2176
stRp2177
sS'RR'
p2178
g1
(g2
g3
(dp2179
S'M300'
p2180
g1
(g2
g3
(dp2181
S'minCut'
p2182
F300
sg16
(F0.55459999999999998
F0.001392
S'pb'
tp2183
sS'maxCut'
p2184
F800
sg19
(I45679
I4321
tp2185
stRp2186
sS'M800'
p2187
g1
(g2
g3
(dp2188
S'minCut'
p2189
F800
sg16
(F0.01303
F3.2969999999999998e-05
S'pb'
tp2190
sS'maxCut'
p2191
F1300
sg19
(I40922
I9078
tp2192
stRp2193
sS'M1300'
p2194
g1
(g2
g3
(dp2195
S'minCut'
p2196
F1300
sg16
(F0.001431
F3.563e-06
S'pb'
tp2197
sS'maxCut'
p2198
F10000000000
sg19
(I45253
I4747
tp2199
stRp2200
stRp2201
stRp2202
sS'Con'
p2203
g1
(g2
g3
(dp2204
S'LL'
p2205
g1
(g2
g3
(dp2206
S'M300'
p2207
g1
(g2
g3
(dp2208
S'minCut'
p2209
F300
sg16
(F0.56410000000000005
F0.0014170000000000001
S'pb'
tp2210
sS'maxCut'
p2211
F800
sg19
(I45570
I4430
tp2212
stRp2213
sS'M2000'
p2214
g1
(g2
g3
(dp2215
S'minCut'
p2216
F2000
sg16
(F0.00023570000000000001
F5.8169999999999997e-07
S'pb'
tp2217
sS'maxCut'
p2218
F10000000000
sg19
(I45056
I4944
tp2219
stRp2220
sS'M800'
p2221
g1
(g2
g3
(dp2222
S'minCut'
p2223
F800
sg16
(F0.01421
F3.5849999999999997e-05
S'pb'
tp2224
sS'maxCut'
p2225
F1300
sg19
(I40094
I9906
tp2226
stRp2227
sS'M1300'
p2228
g1
(g2
g3
(dp2229
S'minCut'
p2230
F1300
sg16
(F0.001776
F4.4769999999999997e-06
S'pb'
tp2231
sS'maxCut'
p2232
F2000
sg19
(I39472
I10528
tp2233
stRp2234
stRp2235
sS'LR'
p2236
g1
(g2
g3
(dp2237
S'M300'
p2238
g1
(g2
g3
(dp2239
S'minCut'
p2240
F300
sg16
(F0.56159999999999999
F0.001402
S'pb'
tp2241
sS'maxCut'
p2242
F800
sg19
(I45604
I4396
tp2243
stRp2244
sS'M800'
p2245
g1
(g2
g3
(dp2246
S'minCut'
p2247
F800
sg16
(F0.01439
F3.5620000000000001e-05
S'pb'
tp2248
sS'maxCut'
p2249
F1300
sg19
(I40204
I9796
tp2250
stRp2251
sS'M1300'
p2252
g1
(g2
g3
(dp2253
S'minCut'
p2254
F1300
sg16
(F0.001867
F4.4519999999999999e-06
S'pb'
tp2255
sS'maxCut'
p2256
F10000000000
sg19
(I45519
I4481
tp2257
stRp2258
stRp2259
sS'RR'
p2260
g1
(g2
g3
(dp2261
S'M300'
p2262
g1
(g2
g3
(dp2263
S'minCut'
p2264
F300
sg16
(F0.56389999999999996
F0.001413
S'pb'
tp2265
sS'maxCut'
p2266
F800
sg19
(I45626
I4374
tp2267
stRp2268
sS'M800'
p2269
g1
(g2
g3
(dp2270
S'minCut'
p2271
F800
sg16
(F0.014200000000000001
F3.5960000000000001e-05
S'pb'
tp2272
sS'maxCut'
p2273
F1300
sg19
(I40228
I9772
tp2274
stRp2275
sS'M1300'
p2276
g1
(g2
g3
(dp2277
S'minCut'
p2278
F1300
sg16
(F0.0017719999999999999
F4.4610000000000001e-06
S'pb'
tp2279
sS'maxCut'
p2280
F10000000000
sg19
(I45377
I4623
tp2281
stRp2282
stRp2283
stRp2284
stRp2285
stRp2286
stRp2287
.