ccopy_reg
_reconstructor
p1
(cnesteddict
nesteddict
p2
c__builtin__
dict
p3
(dp4
S'CITo2E'
p5
g1
(g2
g3
(dp6
S'Lam10'
p7
g1
(g2
g3
(dp8
S'Des'
p9
g1
(g2
g3
(dp10
S'LL'
p11
g1
(g2
g3
(dp12
S'M300'
p13
g1
(g2
g3
(dp14
S'minCut'
p15
F300
sS'xsec'
p16
(F0.55320000000000003
F0.0013649999999999999
S'pb'
tp17
sS'maxCut'
p18
F800
sS'cutEfficiency'
p19
(I42400
I7600
tp20
stRp21
sS'M800'
p22
g1
(g2
g3
(dp23
S'minCut'
p24
F800
sg16
(F0.02597
F7.0889999999999994e-05
S'pb'
tp25
sS'maxCut'
p26
F1300
sg19
(I27873
I22127
tp27
stRp28
stRp29
sS'LR'
p30
g1
(g2
g3
(dp31
S'M300'
p32
g1
(g2
g3
(dp33
S'minCut'
p34
F300
sg16
(F0.57840000000000003
F0.0014170000000000001
S'pb'
tp35
sS'maxCut'
p36
F800
sg19
(I41033
I8967
tp37
stRp38
sS'M800'
p39
g1
(g2
g3
(dp40
S'minCut'
p41
F800
sg16
(F0.044650000000000002
F0.0001016
S'pb'
tp42
sS'maxCut'
p43
F1300
sg19
(I24988
I25012
tp44
stRp45
sS'M1300'
p46
g1
(g2
g3
(dp47
S'minCut'
p48
F1300
sg16
(F0.02086
F5.3319999999999998e-05
S'pb'
tp49
sS'maxCut'
p50
F10000000000
sg19
(I45905
I4095
tp51
stRp52
stRp53
sS'RR'
p54
g1
(g2
g3
(dp55
S'M300'
p56
g1
(g2
g3
(dp57
S'minCut'
p58
F300
sg16
(F0.54910000000000003
F0.001353
S'pb'
tp59
sS'maxCut'
p60
F800
sg19
(I42228
I7772
tp61
stRp62
sS'M800'
p63
g1
(g2
g3
(dp64
S'minCut'
p65
F800
sg16
(F0.025909999999999999
F7.0480000000000003e-05
S'pb'
tp66
sS'maxCut'
p67
F1300
sg19
(I27219
I22281
tp68
stRp69
sS'M1300'
p70
g1
(g2
g3
(dp71
S'minCut'
p72
F1300
sg16
(F0.01025
F2.7399999999999999e-05
S'pb'
tp73
sS'maxCut'
p74
F10000000000
sg19
(I45897
I4103
tp75
stRp76
stRp77
stRp78
sS'Con'
p79
g1
(g2
g3
(dp80
S'LL'
p81
g1
(g2
g3
(dp82
S'M300'
p83
g1
(g2
g3
(dp84
S'minCut'
p85
F300
sg16
(F0.63360000000000005
F0.0015629999999999999
S'pb'
tp86
sS'maxCut'
p87
F800
sg19
(I41939
I8061
tp88
stRp89
sS'M2000'
p90
g1
(g2
g3
(dp91
S'minCut'
p92
F2000
sg16
(F0.0052399999999999999
F1.488e-05
S'pb'
tp93
sS'maxCut'
p94
F10000000000
sg19
(I44216
I5784
tp95
stRp96
sS'M800'
p97
g1
(g2
g3
(dp98
S'minCut'
p99
F800
sg16
(F0.039489999999999997
F0.0001128
S'pb'
tp100
sS'maxCut'
p101
F1300
sg19
(I29184
I20816
tp102
stRp103
sS'M1300'
p104
g1
(g2
g3
(dp105
S'minCut'
p106
F1300
sg16
(F0.01417
F3.9669999999999998e-05
S'pb'
tp107
sS'maxCut'
p108
F2000
sg19
(I28779
I21221
tp109
stRp110
stRp111
sS'LR'
p112
g1
(g2
g3
(dp113
S'M300'
p114
g1
(g2
g3
(dp115
S'minCut'
p116
F300
sg16
(F0.68000000000000005
F0.001573
S'pb'
tp117
sS'maxCut'
p118
F800
sg19
(I41070
I8930
tp119
stRp120
sS'M800'
p121
g1
(g2
g3
(dp122
S'minCut'
p123
F800
sg16
(F0.059760000000000001
F0.00014119999999999999
S'pb'
tp124
sS'maxCut'
p125
F1300
sg19
(I26672
I23328
tp126
stRp127
sS'M1300'
p128
g1
(g2
g3
(dp129
S'minCut'
p130
F1300
sg16
(F0.025100000000000001
F6.6459999999999997e-05
S'pb'
tp131
sS'maxCut'
p132
F10000000000
sg19
(I45484
I4516
tp133
stRp134
stRp135
sS'RR'
p136
g1
(g2
g3
(dp137
S'M300'
p138
g1
(g2
g3
(dp139
S'minCut'
p140
F300
sg16
(F0.63690000000000002
F0.0015709999999999999
S'pb'
tp141
sS'maxCut'
p142
F800
sg19
(I41873
I8127
tp143
stRp144
sS'M800'
p145
g1
(g2
g3
(dp146
S'minCut'
p147
F800
sg16
(F0.039550000000000002
F0.0001131
S'pb'
tp148
sS'maxCut'
p149
F1300
sg19
(I29311
I20689
tp150
stRp151
sS'M1300'
p152
g1
(g2
g3
(dp153
S'minCut'
p154
F1300
sg16
(F0.01417
F4.0000000000000003e-05
S'pb'
tp155
sS'maxCut'
p156
F10000000000
sg19
(I45274
I4726
tp157
stRp158
stRp159
stRp160
stRp161
sS'Lam100k'
p162
g1
(g2
g3
(dp163
S'Des'
p164
g1
(g2
g3
(dp165
S'LL'
p166
g1
(g2
g3
(dp167
S'M300'
p168
g1
(g2
g3
(dp169
S'minCut'
p170
F300
sg16
(F0.55689999999999995
F0.001395
S'pb'
tp171
sS'maxCut'
p172
F800
sg19
(I43328
I6672
tp173
stRp174
sS'M800'
p175
g1
(g2
g3
(dp176
S'minCut'
p177
F800
sg16
(F0.01341
F3.4029999999999998e-05
S'pb'
tp178
sS'maxCut'
p179
F1300
sg19
(I38596
I11404
tp180
stRp181
stRp182
sS'LR'
p183
g1
(g2
g3
(dp184
S'M300'
p185
g1
(g2
g3
(dp186
S'minCut'
p187
F300
sg16
(F0.56220000000000003
F0.001415
S'pb'
tp188
sS'maxCut'
p189
F800
sg19
(I43331
I6669
tp190
stRp191
sS'M800'
p192
g1
(g2
g3
(dp193
S'minCut'
p194
F800
sg16
(F0.013469999999999999
F3.4199999999999998e-05
S'pb'
tp195
sS'maxCut'
p196
F1300
sg19
(I38755
I11245
tp197
stRp198
sS'M1300'
p199
g1
(g2
g3
(dp200
S'minCut'
p201
F1300
sg16
(F0.0015200000000000001
F3.8290000000000001e-06
S'pb'
tp202
sS'maxCut'
p203
F10000000000
sg19
(I43050
I6950
tp204
stRp205
stRp206
sS'RR'
p207
g1
(g2
g3
(dp208
S'M300'
p209
g1
(g2
g3
(dp210
S'minCut'
p211
F300
sg16
(F0.55720000000000003
F0.0013960000000000001
S'pb'
tp212
sS'maxCut'
p213
F800
sg19
(I43333
I6667
tp214
stRp215
sS'M800'
p216
g1
(g2
g3
(dp217
S'minCut'
p218
F800
sg16
(F0.01345
F3.413e-05
S'pb'
tp219
sS'maxCut'
p220
F1300
sg19
(I38902
I11098
tp221
stRp222
sS'M1300'
p223
g1
(g2
g3
(dp224
S'minCut'
p225
F1300
sg16
(F0.001534
F3.8750000000000002e-06
S'pb'
tp226
sS'maxCut'
p227
F10000000000
sg19
(I42944
I7056
tp228
stRp229
stRp230
stRp231
sS'Con'
p232
g1
(g2
g3
(dp233
S'LL'
p234
g1
(g2
g3
(dp235
S'M300'
p236
g1
(g2
g3
(dp237
S'minCut'
p238
F300
sg16
(F0.55759999999999998
F0.001395
S'pb'
tp239
sS'maxCut'
p240
F800
sg19
(I43306
I6694
tp241
stRp242
sS'M2000'
p243
g1
(g2
g3
(dp244
S'minCut'
p245
F2000
sg16
(F0.00015779999999999999
F3.8290000000000002e-07
S'pb'
tp246
sS'maxCut'
p247
F10000000000
sg19
(I42334
I7666
tp248
stRp249
sS'M800'
p250
g1
(g2
g3
(dp251
S'minCut'
p252
F800
sg16
(F0.013429999999999999
F3.4140000000000002e-05
S'pb'
tp253
sS'maxCut'
p254
F1300
sg19
(I38731
I11269
tp255
stRp256
sS'M1300'
p257
g1
(g2
g3
(dp258
S'minCut'
p259
F1300
sg16
(F0.0015299999999999999
F3.8530000000000002e-06
S'pb'
tp260
sS'maxCut'
p261
F2000
sg19
(I38573
I11427
tp262
stRp263
stRp264
sS'LR'
p265
g1
(g2
g3
(dp266
S'M300'
p267
g1
(g2
g3
(dp268
S'minCut'
p269
F300
sg16
(F0.55789999999999995
F0.0013979999999999999
S'pb'
tp270
sS'maxCut'
p271
F800
sg19
(I43432
I6568
tp272
stRp273
sS'M800'
p274
g1
(g2
g3
(dp275
S'minCut'
p276
F800
sg16
(F0.0134
F3.3909999999999999e-05
S'pb'
tp277
sS'maxCut'
p278
F1300
sg19
(I38768
I11232
tp279
stRp280
sS'M1300'
p281
g1
(g2
g3
(dp282
S'minCut'
p283
F1300
sg16
(F0.001524
F3.8430000000000003e-06
S'pb'
tp284
sS'maxCut'
p285
F10000000000
sg19
(I42987
I7013
tp286
stRp287
stRp288
sS'RR'
p289
g1
(g2
g3
(dp290
S'M300'
p291
g1
(g2
g3
(dp292
S'minCut'
p293
F300
sg16
(F0.55549999999999999
F0.001392
S'pb'
tp294
sS'maxCut'
p295
F800
sg19
(I43312
I6688
tp296
stRp297
sS'M800'
p298
g1
(g2
g3
(dp299
S'minCut'
p300
F800
sg16
(F0.01337
F3.383e-05
S'pb'
tp301
sS'maxCut'
p302
F1300
sg19
(I38545
I11455
tp303
stRp304
sS'M1300'
p305
g1
(g2
g3
(dp306
S'minCut'
p307
F1300
sg16
(F0.0015219999999999999
F3.8299999999999998e-06
S'pb'
tp308
sS'maxCut'
p309
F10000000000
sg19
(I43136
I6864
tp310
stRp311
stRp312
stRp313
stRp314
sS'Lam1'
p315
g1
(g2
g3
(dp316
S'Des'
p317
g1
(g2
g3
(dp318
S'LL'
p319
g1
(g2
g3
(dp320
S'M300'
p321
g1
(g2
g3
(dp322
S'minCut'
p323
F300
sg16
(F365.80000000000001
F0.94230000000000003
S'pb'
tp324
sS'maxCut'
p325
F800
sg19
(I20972
I27224
tp326
stRp327
sS'M800'
p328
g1
(g2
g3
(dp329
S'minCut'
p330
F800
sg16
(F207.5
F0.55689999999999995
S'pb'
tp331
sS'maxCut'
p332
F1300
sg19
(I18844
I25516
tp333
stRp334
stRp335
sS'LR'
p336
g1
(g2
g3
(dp337
S'M300'
p338
g1
(g2
g3
(dp339
S'minCut'
p340
F300
sg16
(F736.10000000000002
F1.893
S'pb'
tp341
sS'maxCut'
p342
F800
sg19
(I21275
I27186
tp343
stRp344
sS'M800'
p345
g1
(g2
g3
(dp346
S'minCut'
p347
F800
sg16
(F416.10000000000002
F1.0589999999999999
S'pb'
tp348
sS'maxCut'
p349
F1300
sg19
(I21288
I28364
tp350
stRp351
sS'M1300'
p352
g1
(g2
g3
(dp353
S'minCut'
p354
F1300
sg16
(F232.69999999999999
F0.62690000000000001
S'pb'
tp355
sS'maxCut'
p356
F10000000000
sg19
(I45732
I4268
tp357
stRp358
stRp359
sS'RR'
p360
g1
(g2
g3
(dp361
S'M300'
p362
g1
(g2
g3
(dp363
S'minCut'
p364
F300
sg16
(F366
F0.95040000000000002
S'pb'
tp365
sS'maxCut'
p366
F800
sg19
(I21095
I26841
tp367
stRp368
sS'M800'
p369
g1
(g2
g3
(dp370
S'minCut'
p371
F800
sg16
(F207.59999999999999
F0.52449999999999997
S'pb'
tp372
sS'maxCut'
p373
F1300
sg19
(I21470
I28530
tp374
stRp375
stRp376
stRp377
sS'Con'
p378
g1
(g2
g3
(dp379
S'LL'
p380
g1
(g2
g3
(dp381
S'M300'
p382
g1
(g2
g3
(dp383
S'minCut'
p384
F300
sg16
(F373
F0.94320000000000004
S'pb'
tp385
sS'maxCut'
p386
F800
sg19
(I22386
I27614
tp387
stRp388
sS'M800'
p389
g1
(g2
g3
(dp390
S'minCut'
p391
F800
sg16
(F208.40000000000001
F0.53010000000000002
S'pb'
tp392
sS'maxCut'
p393
F1300
sg19
(I21426
I28184
tp394
stRp395
sS'M1300'
p396
g1
(g2
g3
(dp397
S'minCut'
p398
F1300
sg16
(F117.09999999999999
F0.31719999999999998
S'pb'
tp399
sS'maxCut'
p400
F2000
sg19
(I26596
I22516
tp401
stRp402
stRp403
sS'LR'
p404
g1
(g2
g3
(dp405
S'M800'
p406
g1
(g2
g3
(dp407
S'minCut'
p408
F800
sg16
(F415.89999999999998
F1.0589999999999999
S'pb'
tp409
sS'maxCut'
p410
F1300
sg19
(I21333
I27969
tp411
stRp412
sS'M1300'
p413
g1
(g2
g3
(dp414
S'minCut'
p415
F1300
sg16
(F235.19999999999999
F0.76300000000000001
S'pb'
tp416
sS'maxCut'
p417
F10000000000
sg19
(I31800
I2863
tp418
stRp419
stRp420
sS'RR'
p421
g1
(g2
g3
(dp422
S'M300'
p423
g1
(g2
g3
(dp424
S'minCut'
p425
F300
sg16
(F373.39999999999998
F0.94530000000000003
S'pb'
tp426
sS'maxCut'
p427
F800
sg19
(I22256
I27372
tp428
stRp429
sS'M800'
p430
g1
(g2
g3
(dp431
S'minCut'
p432
F800
sg16
(F209.69999999999999
F0.53139999999999998
S'pb'
tp433
sS'maxCut'
p434
F1300
sg19
(I21441
I28559
tp435
stRp436
sS'M1300'
p437
g1
(g2
g3
(dp438
S'minCut'
p439
F1300
sg16
(F116.59999999999999
F0.31919999999999998
S'pb'
tp440
sS'maxCut'
p441
F10000000000
sg19
(I44226
I3979
tp442
stRp443
stRp444
stRp445
stRp446
sS'Lam16'
p447
g1
(g2
g3
(dp448
S'Des'
p449
g1
(g2
g3
(dp450
S'LL'
p451
g1
(g2
g3
(dp452
S'M300'
p453
g1
(g2
g3
(dp454
S'minCut'
p455
F300
sg16
(F0.54759999999999998
F0.0013699999999999999
S'pb'
tp456
sS'maxCut'
p457
F800
sg19
(I43083
I6521
tp458
stRp459
sS'M800'
p460
g1
(g2
g3
(dp461
S'minCut'
p462
F800
sg16
(F0.013809999999999999
F3.4980000000000001e-05
S'pb'
tp463
sS'maxCut'
p464
F1300
sg19
(I35337
I13121
tp465
stRp466
stRp467
sS'LR'
p468
g1
(g2
g3
(dp469
S'M300'
p470
g1
(g2
g3
(dp471
S'minCut'
p472
F300
sg16
(F0.54990000000000006
F0.00139
S'pb'
tp473
sS'maxCut'
p474
F800
sg19
(I42576
I6798
tp475
stRp476
sS'M800'
p477
g1
(g2
g3
(dp478
S'minCut'
p479
F800
sg16
(F0.01643
F3.8630000000000001e-05
S'pb'
tp480
sS'maxCut'
p481
F1300
sg19
(I33790
I16210
tp482
stRp483
sS'M1300'
p484
g1
(g2
g3
(dp485
S'minCut'
p486
F1300
sg16
(F0.0039760000000000004
F1.007e-05
S'pb'
tp487
sS'maxCut'
p488
F10000000000
sg19
(I45425
I4575
tp489
stRp490
stRp491
sS'RR'
p492
g1
(g2
g3
(dp493
S'M300'
p494
g1
(g2
g3
(dp495
S'minCut'
p496
F300
sg16
(F0.54620000000000002
F0.001369
S'pb'
tp497
sS'maxCut'
p498
F800
sg19
(I43236
I6453
tp499
stRp500
sS'M800'
p501
g1
(g2
g3
(dp502
S'minCut'
p503
F800
sg16
(F0.013650000000000001
F3.4610000000000002e-05
S'pb'
tp504
sS'maxCut'
p505
F1300
sg19
(I34497
I13199
tp506
stRp507
sS'M1300'
p508
g1
(g2
g3
(dp509
S'minCut'
p510
F1300
sg16
(F0.002382
F6.1419999999999998e-06
S'pb'
tp511
sS'maxCut'
p512
F10000000000
sg19
(I44842
I5158
tp513
stRp514
stRp515
stRp516
sS'Con'
p517
g1
(g2
g3
(dp518
S'LL'
p519
g1
(g2
g3
(dp520
S'M300'
p521
g1
(g2
g3
(dp522
S'minCut'
p523
F300
sg16
(F0.57850000000000001
F0.001456
S'pb'
tp524
sS'maxCut'
p525
F800
sg19
(I42331
I6708
tp526
stRp527
sS'M2000'
p528
g1
(g2
g3
(dp529
S'minCut'
p530
F2000
sg16
(F0.001052
F2.9170000000000002e-06
S'pb'
tp531
sS'maxCut'
p532
F10000000000
sg19
(I43432
I5384
tp533
stRp534
sS'M800'
p535
g1
(g2
g3
(dp536
S'minCut'
p537
F800
sg16
(F0.019
F4.799e-05
S'pb'
tp538
sS'maxCut'
p539
F1300
sg19
(I35350
I14650
tp540
stRp541
sS'M1300'
p542
g1
(g2
g3
(dp543
S'minCut'
p544
F1300
sg16
(F0.003954
F1.0669999999999999e-05
S'pb'
tp545
sS'maxCut'
p546
F2000
sg19
(I32937
I17063
tp547
stRp548
stRp549
sS'LR'
p550
g1
(g2
g3
(dp551
S'M300'
p552
g1
(g2
g3
(dp553
S'minCut'
p554
F300
sg16
(F0.5897
F0.001446
S'pb'
tp555
sS'maxCut'
p556
F800
sg19
(I43046
I6954
tp557
stRp558
sS'M800'
p559
g1
(g2
g3
(dp560
S'minCut'
p561
F800
sg16
(F0.022339999999999999
F5.2240000000000001e-05
S'pb'
tp562
sS'maxCut'
p563
F1300
sg19
(I33548
I16452
tp564
stRp565
sS'M1300'
p566
g1
(g2
g3
(dp567
S'minCut'
p568
F1300
sg16
(F0.0056389999999999999
F1.573e-05
S'pb'
tp569
sS'maxCut'
p570
F10000000000
sg19
(I45177
I4823
tp571
stRp572
stRp573
sS'RR'
p574
g1
(g2
g3
(dp575
S'M300'
p576
g1
(g2
g3
(dp577
S'minCut'
p578
F300
sg16
(F0.58599999999999997
F0.001459
S'pb'
tp579
sS'maxCut'
p580
F800
sg19
(I43275
I6725
tp581
stRp582
sS'M800'
p583
g1
(g2
g3
(dp584
S'minCut'
p585
F800
sg16
(F0.01917
F4.9020000000000002e-05
S'pb'
tp586
sS'maxCut'
p587
F1300
sg19
(I34737
I14525
tp588
stRp589
sS'M1300'
p590
g1
(g2
g3
(dp591
S'minCut'
p592
F1300
sg16
(F0.0039189999999999997
F1.0560000000000001e-05
S'pb'
tp593
sS'maxCut'
p594
F10000000000
sg19
(I44440
I5136
tp595
stRp596
stRp597
stRp598
stRp599
sS'Lam28'
p600
g1
(g2
g3
(dp601
S'Des'
p602
g1
(g2
g3
(dp603
S'LL'
p604
g1
(g2
g3
(dp605
S'M300'
p606
g1
(g2
g3
(dp607
S'minCut'
p608
F300
sg16
(F0.55189999999999995
F0.001384
S'pb'
tp609
sS'maxCut'
p610
F800
sg19
(I43607
I6393
tp611
stRp612
sS'M800'
p613
g1
(g2
g3
(dp614
S'minCut'
p615
F800
sg16
(F0.012999999999999999
F3.2969999999999998e-05
S'pb'
tp616
sS'maxCut'
p617
F1300
sg19
(I38852
I11148
tp618
stRp619
sS'M1300'
p620
g1
(g2
g3
(dp621
S'minCut'
p622
F1300
sg16
(F0.001446
F3.613e-06
S'pb'
tp623
sS'maxCut'
p624
F10000000000
sg19
(I42405
I6829
tp625
stRp626
stRp627
sS'LR'
p628
g1
(g2
g3
(dp629
S'M300'
p630
g1
(g2
g3
(dp631
S'minCut'
p632
F300
sg16
(F0.55349999999999999
F0.0013860000000000001
S'pb'
tp633
sS'maxCut'
p634
F800
sg19
(I43473
I6527
tp635
stRp636
sS'M800'
p637
g1
(g2
g3
(dp638
S'minCut'
p639
F800
sg16
(F0.01308
F3.3330000000000001e-05
S'pb'
tp640
sS'maxCut'
p641
F1300
sg19
(I38283
I11717
tp642
stRp643
sS'M1300'
p644
g1
(g2
g3
(dp645
S'minCut'
p646
F1300
sg16
(F0.0016130000000000001
F3.9369999999999997e-06
S'pb'
tp647
sS'maxCut'
p648
F10000000000
sg19
(I43587
I6413
tp649
stRp650
stRp651
sS'RR'
p652
g1
(g2
g3
(dp653
S'M300'
p654
g1
(g2
g3
(dp655
S'minCut'
p656
F300
sg16
(F0.55520000000000003
F0.0013879999999999999
S'pb'
tp657
sS'maxCut'
p658
F800
sg19
(I43534
I6466
tp659
stRp660
sS'M800'
p661
g1
(g2
g3
(dp662
S'minCut'
p663
F800
sg16
(F0.01286
F3.2620000000000003e-05
S'pb'
tp664
sS'maxCut'
p665
F1300
sg19
(I38810
I11190
tp666
stRp667
sS'M1300'
p668
g1
(g2
g3
(dp669
S'minCut'
p670
F1300
sg16
(F0.0014480000000000001
F3.6100000000000002e-06
S'pb'
tp671
sS'maxCut'
p672
F10000000000
sg19
(I42668
I6572
tp673
stRp674
stRp675
stRp676
sS'Con'
p677
g1
(g2
g3
(dp678
S'LL'
p679
g1
(g2
g3
(dp680
S'M300'
p681
g1
(g2
g3
(dp682
S'minCut'
p683
F300
sg16
(F0.56399999999999995
F0.001413
S'pb'
tp684
sS'maxCut'
p685
F800
sg19
(I43531
I6469
tp686
stRp687
sS'M2000'
p688
g1
(g2
g3
(dp689
S'minCut'
p690
F2000
sg16
(F0.00029470000000000001
F7.3630000000000005e-07
S'pb'
tp691
sS'maxCut'
p692
F10000000000
sg19
(I43482
I6518
tp693
stRp694
sS'M800'
p695
g1
(g2
g3
(dp696
S'minCut'
p697
F800
sg16
(F0.014619999999999999
F3.7070000000000003e-05
S'pb'
tp698
sS'maxCut'
p699
F1300
sg19
(I38210
I11790
tp700
stRp701
sS'M1300'
p702
g1
(g2
g3
(dp703
S'minCut'
p704
F1300
sg16
(F0.001949
F4.9119999999999997e-06
S'pb'
tp705
sS'maxCut'
p706
F2000
sg19
(I37351
I12649
tp707
stRp708
stRp709
sS'LR'
p710
g1
(g2
g3
(dp711
S'M300'
p712
g1
(g2
g3
(dp713
S'minCut'
p714
F300
sg16
(F0.56710000000000005
F0.00141
S'pb'
tp715
sS'maxCut'
p716
F800
sg19
(I43488
I6512
tp717
stRp718
sS'M800'
p719
g1
(g2
g3
(dp720
S'minCut'
p721
F800
sg16
(F0.01502
F3.6640000000000002e-05
S'pb'
tp722
sS'maxCut'
p723
F1300
sg19
(I37712
I12288
tp724
stRp725
sS'M1300'
p726
g1
(g2
g3
(dp727
S'minCut'
p728
F1300
sg16
(F0.0021419999999999998
F5.1070000000000004e-06
S'pb'
tp729
sS'maxCut'
p730
F10000000000
sg19
(I42173
I5917
tp731
stRp732
stRp733
sS'RR'
p734
g1
(g2
g3
(dp735
S'M300'
p736
g1
(g2
g3
(dp737
S'minCut'
p738
F300
sg16
(F0.56579999999999997
F0.001415
S'pb'
tp739
sS'maxCut'
p740
F800
sg19
(I43569
I6431
tp741
stRp742
sS'M800'
p743
g1
(g2
g3
(dp744
S'minCut'
p745
F800
sg16
(F0.014630000000000001
F3.6900000000000002e-05
S'pb'
tp746
sS'maxCut'
p747
F1300
sg19
(I38054
I11946
tp748
stRp749
sS'M1300'
p750
g1
(g2
g3
(dp751
S'minCut'
p752
F1300
sg16
(F0.001952
F4.9200000000000003e-06
S'pb'
tp753
sS'maxCut'
p754
F10000000000
sg19
(I43652
I6348
tp755
stRp756
stRp757
stRp758
stRp759
sS'Lam22'
p760
g1
(g2
g3
(dp761
S'Des'
p762
g1
(g2
g3
(dp763
S'LL'
p764
g1
(g2
g3
(dp765
S'M300'
p766
g1
(g2
g3
(dp767
S'minCut'
p768
F300
sg16
(F0.55179999999999996
F0.0013799999999999999
S'pb'
tp769
sS'maxCut'
p770
F800
sg19
(I43561
I6439
tp771
stRp772
sS'M800'
p773
g1
(g2
g3
(dp774
S'minCut'
p775
F800
sg16
(F0.012869999999999999
F3.2610000000000001e-05
S'pb'
tp776
sS'maxCut'
p777
F1300
sg19
(I37966
I11352
tp778
stRp779
sS'M1300'
p780
g1
(g2
g3
(dp781
S'minCut'
p782
F1300
sg16
(F0.001578
F3.8970000000000001e-06
S'pb'
tp783
sS'maxCut'
p784
F10000000000
sg19
(I43642
I6358
tp785
stRp786
stRp787
sS'LR'
p788
g1
(g2
g3
(dp789
S'M300'
p790
g1
(g2
g3
(dp791
S'minCut'
p792
F300
sg16
(F0.55320000000000003
F0.001395
S'pb'
tp793
sS'maxCut'
p794
F800
sg19
(I43447
I6553
tp795
stRp796
sS'M800'
p797
g1
(g2
g3
(dp798
S'minCut'
p799
F800
sg16
(F0.01345
F3.3689999999999998e-05
S'pb'
tp800
sS'maxCut'
p801
F1300
sg19
(I37426
I12574
tp802
stRp803
sS'M1300'
p804
g1
(g2
g3
(dp805
S'minCut'
p806
F1300
sg16
(F0.002006
F4.6380000000000003e-06
S'pb'
tp807
sS'maxCut'
p808
F10000000000
sg19
(I44249
I5751
tp809
stRp810
stRp811
sS'RR'
p812
g1
(g2
g3
(dp813
S'M300'
p814
g1
(g2
g3
(dp815
S'minCut'
p816
F300
sg16
(F0.55300000000000005
F0.001384
S'pb'
tp817
sS'maxCut'
p818
F800
sg19
(I43416
I6584
tp819
stRp820
sS'M800'
p821
g1
(g2
g3
(dp822
S'minCut'
p823
F800
sg16
(F0.012880000000000001
F3.2410000000000003e-05
S'pb'
tp824
sS'maxCut'
p825
F1300
sg19
(I38387
I11613
tp826
stRp827
sS'M1300'
p828
g1
(g2
g3
(dp829
S'minCut'
p830
F1300
sg16
(F0.0015839999999999999
F3.8859999999999997e-06
S'pb'
tp831
sS'maxCut'
p832
F10000000000
sg19
(I43826
I6174
tp833
stRp834
stRp835
stRp836
sS'Con'
p837
g1
(g2
g3
(dp838
S'LL'
p839
g1
(g2
g3
(dp840
S'M300'
p841
g1
(g2
g3
(dp842
S'minCut'
p843
F300
sg16
(F0.56899999999999995
F0.0014289999999999999
S'pb'
tp844
sS'maxCut'
p845
F800
sg19
(I42676
I6574
tp846
stRp847
sS'M2000'
p848
g1
(g2
g3
(dp849
S'minCut'
p850
F2000
sg16
(F0.0010510000000000001
F2.9079999999999999e-06
S'pb'
tp851
sS'maxCut'
p852
F10000000000
sg19
(I43676
I5511
tp853
stRp854
sS'M800'
p855
g1
(g2
g3
(dp856
S'minCut'
p857
F800
sg16
(F0.015599999999999999
F3.9329999999999998e-05
S'pb'
tp858
sS'maxCut'
p859
F1300
sg19
(I37368
I12632
tp860
stRp861
sS'M1300'
p862
g1
(g2
g3
(dp863
S'minCut'
p864
F1300
sg16
(F0.0023900000000000002
F6.1029999999999998e-06
S'pb'
tp865
sS'maxCut'
p866
F2000
sg19
(I35828
I14172
tp867
stRp868
stRp869
sS'LR'
p870
g1
(g2
g3
(dp871
S'M300'
p872
g1
(g2
g3
(dp873
S'minCut'
p874
F300
sg16
(F0.57140000000000002
F0.0014139999999999999
S'pb'
tp875
sS'maxCut'
p876
F800
sg19
(I43341
I6659
tp877
stRp878
sS'M800'
p879
g1
(g2
g3
(dp880
S'minCut'
p881
F800
sg16
(F0.016639999999999999
F3.9350000000000001e-05
S'pb'
tp882
sS'maxCut'
p883
F1300
sg19
(I36543
I13457
tp884
stRp885
sS'M1300'
p886
g1
(g2
g3
(dp887
S'minCut'
p888
F1300
sg16
(F0.0028800000000000002
F6.9299999999999997e-06
S'pb'
tp889
sS'maxCut'
p890
F10000000000
sg19
(I44167
I5492
tp891
stRp892
stRp893
sS'RR'
p894
g1
(g2
g3
(dp895
S'M300'
p896
g1
(g2
g3
(dp897
S'minCut'
p898
F300
sg16
(F0.57030000000000003
F0.0014400000000000001
S'pb'
tp899
sS'maxCut'
p900
F800
sg19
(I42748
I6573
tp901
stRp902
sS'M800'
p903
g1
(g2
g3
(dp904
S'minCut'
p905
F800
sg16
(F0.01575
F3.9820000000000002e-05
S'pb'
tp906
sS'maxCut'
p907
F1300
sg19
(I37362
I12638
tp908
stRp909
sS'M1300'
p910
g1
(g2
g3
(dp911
S'minCut'
p912
F1300
sg16
(F0.002392
F6.263e-06
S'pb'
tp913
sS'maxCut'
p914
F10000000000
sg19
(I41874
I5716
tp915
stRp916
stRp917
stRp918
stRp919
sS'Lam34'
p920
g1
(g2
g3
(dp921
S'Des'
p922
g1
(g2
g3
(dp923
S'LL'
p924
g1
(g2
g3
(dp925
S'M300'
p926
g1
(g2
g3
(dp927
S'minCut'
p928
F300
sg16
(F0.55549999999999999
F0.001397
S'pb'
tp929
sS'maxCut'
p930
F800
sg19
(I43030
I6331
tp931
stRp932
sS'M800'
p933
g1
(g2
g3
(dp934
S'minCut'
p935
F800
sg16
(F0.012999999999999999
F3.2960000000000003e-05
S'pb'
tp936
sS'maxCut'
p937
F1300
sg19
(I38861
I11139
tp938
stRp939
sS'M1300'
p940
g1
(g2
g3
(dp941
S'minCut'
p942
F1300
sg16
(F0.001436
F3.591e-06
S'pb'
tp943
sS'maxCut'
p944
F10000000000
sg19
(I42940
I6763
tp945
stRp946
stRp947
sS'LR'
p948
g1
(g2
g3
(dp949
S'M300'
p950
g1
(g2
g3
(dp951
S'minCut'
p952
F300
sg16
(F0.55689999999999995
F0.0013990000000000001
S'pb'
tp953
sS'maxCut'
p954
F800
sg19
(I43593
I6407
tp955
stRp956
sS'M800'
p957
g1
(g2
g3
(dp958
S'minCut'
p959
F800
sg16
(F0.01311
F3.3590000000000002e-05
S'pb'
tp960
sS'maxCut'
p961
F1300
sg19
(I38838
I11162
tp962
stRp963
sS'M1300'
p964
g1
(g2
g3
(dp965
S'minCut'
p966
F1300
sg16
(F0.001508
F3.7919999999999999e-06
S'pb'
tp967
sS'maxCut'
p968
F10000000000
sg19
(I43402
I6598
tp969
stRp970
stRp971
sS'RR'
p972
g1
(g2
g3
(dp973
S'M300'
p974
g1
(g2
g3
(dp975
S'minCut'
p976
F300
sg16
(F0.55269999999999997
F0.001384
S'pb'
tp977
sS'maxCut'
p978
F800
sg19
(I43664
I6336
tp979
stRp980
sS'M800'
p981
g1
(g2
g3
(dp982
S'minCut'
p983
F800
sg16
(F0.012999999999999999
F3.2979999999999999e-05
S'pb'
tp984
sS'maxCut'
p985
F1300
sg19
(I38860
I11140
tp986
stRp987
sS'M1300'
p988
g1
(g2
g3
(dp989
S'minCut'
p990
F1300
sg16
(F0.001433
F3.5659999999999998e-06
S'pb'
tp991
sS'maxCut'
p992
F10000000000
sg19
(I43132
I6868
tp993
stRp994
stRp995
stRp996
sS'Con'
p997
g1
(g2
g3
(dp998
S'LL'
p999
g1
(g2
g3
(dp1000
S'M300'
p1001
g1
(g2
g3
(dp1002
S'minCut'
p1003
F300
sg16
(F0.5635
F0.0014139999999999999
S'pb'
tp1004
sS'maxCut'
p1005
F800
sg19
(I43523
I6477
tp1006
stRp1007
sS'M2000'
p1008
g1
(g2
g3
(dp1009
S'minCut'
p1010
F2000
sg16
(F0.00023560000000000001
F5.8650000000000002e-07
S'pb'
tp1011
sS'maxCut'
p1012
F10000000000
sg19
(I42386
I6714
tp1013
stRp1014
sS'M800'
p1015
g1
(g2
g3
(dp1016
S'minCut'
p1017
F800
sg16
(F0.014189999999999999
F3.6390000000000002e-05
S'pb'
tp1018
sS'maxCut'
p1019
F1300
sg19
(I37621
I11329
tp1020
stRp1021
sS'M1300'
p1022
g1
(g2
g3
(dp1023
S'minCut'
p1024
F1300
sg16
(F0.001779
F4.4800000000000003e-06
S'pb'
tp1025
sS'maxCut'
p1026
F2000
sg19
(I37908
I12092
tp1027
stRp1028
stRp1029
sS'LR'
p1030
g1
(g2
g3
(dp1031
S'M300'
p1032
g1
(g2
g3
(dp1033
S'minCut'
p1034
F300
sg16
(F0.56389999999999996
F0.0014009999999999999
S'pb'
tp1035
sS'maxCut'
p1036
F800
sg19
(I43468
I6532
tp1037
stRp1038
sS'M800'
p1039
g1
(g2
g3
(dp1040
S'minCut'
p1041
F800
sg16
(F0.01443
F3.5719999999999997e-05
S'pb'
tp1042
sS'maxCut'
p1043
F1300
sg19
(I38205
I11795
tp1044
stRp1045
sS'M1300'
p1046
g1
(g2
g3
(dp1047
S'minCut'
p1048
F1300
sg16
(F0.001874
F4.5059999999999997e-06
S'pb'
tp1049
sS'maxCut'
p1050
F10000000000
sg19
(I42413
I6319
tp1051
stRp1052
stRp1053
sS'RR'
p1054
g1
(g2
g3
(dp1055
S'M300'
p1056
g1
(g2
g3
(dp1057
S'minCut'
p1058
F300
sg16
(F0.56340000000000001
F0.0014090000000000001
S'pb'
tp1059
sS'maxCut'
p1060
F800
sg19
(I43428
I6572
tp1061
stRp1062
sS'M800'
p1063
g1
(g2
g3
(dp1064
S'minCut'
p1065
F800
sg16
(F0.01417
F3.6069999999999999e-05
S'pb'
tp1066
sS'maxCut'
p1067
F1300
sg19
(I37968
I11279
tp1068
stRp1069
sS'M1300'
p1070
g1
(g2
g3
(dp1071
S'minCut'
p1072
F1300
sg16
(F0.0017750000000000001
F4.4870000000000004e-06
S'pb'
tp1073
sS'maxCut'
p1074
F10000000000
sg19
(I43577
I6423
tp1075
stRp1076
stRp1077
stRp1078
stRp1079
stRp1080
sS'DYTo2E'
p1081
g1
(g2
g3
(dp1082
S'M300'
p1083
g1
(g2
g3
(dp1084
S'minCut'
p1085
F300
sg16
(F78420000000
F19.760000000000002
S'pb'
tp1086
sS'maxCut'
p1087
F800
sg19
(I0
I50000
tp1088
stRp1089
sS'M800'
p1090
g1
(g2
g3
(dp1091
S'minCut'
p1092
F800
sg16
(F78420000000
F0
S'pb'
tp1093
sS'maxCut'
p1094
F1300
sg19
(I0
I50000
tp1095
stRp1096
sS'M1300'
p1097
g1
(g2
g3
(dp1098
S'minCut'
p1099
F1300
sg16
(F78390000000
F0
S'pb'
tp1100
sS'maxCut'
p1101
F10000000000
sg19
(I0
I50000
tp1102
stRp1103
stRp1104
sS'DYTo2Mu'
p1105
g1
(g2
g3
(dp1106
S'M300'
p1107
g1
(g2
g3
(dp1108
S'minCut'
p1109
F300
sg16
(F0.56579999999999997
F0.0014239999999999999
S'pb'
tp1110
sS'maxCut'
p1111
F800
sg19
(I45381
I4619
tp1112
stRp1113
sS'M800'
p1114
g1
(g2
g3
(dp1115
S'minCut'
p1116
F800
sg16
(F0.014189999999999999
F3.608e-05
S'pb'
tp1117
sS'maxCut'
p1118
F1300
sg19
(I40568
I9432
tp1119
stRp1120
stRp1121
sS'CITo2Mu'
p1122
g1
(g2
g3
(dp1123
S'Lam10'
p1124
g1
(g2
g3
(dp1125
S'Des'
p1126
g1
(g2
g3
(dp1127
S'LL'
p1128
g1
(g2
g3
(dp1129
S'M300'
p1130
g1
(g2
g3
(dp1131
S'minCut'
p1132
F300
sg16
(F0.55220000000000002
F0.0013600000000000001
S'pb'
tp1133
sS'maxCut'
p1134
F800
sg19
(I44433
I5567
tp1135
stRp1136
sS'M800'
p1137
g1
(g2
g3
(dp1138
S'minCut'
p1139
F800
sg16
(F0.02605
F7.0909999999999997e-05
S'pb'
tp1140
sS'maxCut'
p1141
F1300
sg19
(I28759
I21241
tp1142
stRp1143
sS'M1300'
p1144
g1
(g2
g3
(dp1145
S'minCut'
p1146
F1300
sg16
(F0.010319999999999999
F2.7889999999999999e-05
S'pb'
tp1147
sS'maxCut'
p1148
F10000000000
sg19
(I47167
I2833
tp1149
stRp1150
stRp1151
sS'LR'
p1152
g1
(g2
g3
(dp1153
S'M300'
p1154
g1
(g2
g3
(dp1155
S'minCut'
p1156
F300
sg16
(F0.57779999999999998
F0.0014159999999999999
S'pb'
tp1157
sS'maxCut'
p1158
F800
sg19
(I43081
I6919
tp1159
stRp1160
sS'M800'
p1161
g1
(g2
g3
(dp1162
S'minCut'
p1163
F800
sg16
(F0.059720000000000002
F0.00014109999999999999
S'pb'
tp1164
sS'maxCut'
p1165
F1300
sg19
(I27805
I22195
tp1166
stRp1167
sS'M1300'
p1168
g1
(g2
g3
(dp1169
S'minCut'
p1170
F1300
sg16
(F0.020840000000000001
F5.308e-05
S'pb'
tp1171
sS'maxCut'
p1172
F10000000000
sg19
(I47284
I2716
tp1173
stRp1174
stRp1175
sS'RR'
p1176
g1
(g2
g3
(dp1177
S'M300'
p1178
g1
(g2
g3
(dp1179
S'minCut'
p1180
F300
sg16
(F0.54820000000000002
F0.001354
S'pb'
tp1181
sS'maxCut'
p1182
F800
sg19
(I44476
I5524
tp1183
stRp1184
sS'M800'
p1185
g1
(g2
g3
(dp1186
S'minCut'
p1187
F800
sg16
(F0.025829999999999999
F6.9779999999999999e-05
S'pb'
tp1188
sS'maxCut'
p1189
F1300
sg19
(I28588
I21412
tp1190
stRp1191
sS'M1300'
p1192
g1
(g2
g3
(dp1193
S'minCut'
p1194
F1300
sg16
(F0.0103
F2.756e-05
S'pb'
tp1195
sS'maxCut'
p1196
F10000000000
sg19
(I47219
I2781
tp1197
stRp1198
stRp1199
stRp1200
sS'Con'
p1201
g1
(g2
g3
(dp1202
S'LL'
p1203
g1
(g2
g3
(dp1204
S'M300'
p1205
g1
(g2
g3
(dp1206
S'minCut'
p1207
F300
sg16
(F0.63109999999999999
F0.001549
S'pb'
tp1208
sS'maxCut'
p1209
F800
sg19
(I43913
I6087
tp1210
stRp1211
sS'M2000'
p1212
g1
(g2
g3
(dp1213
S'minCut'
p1214
F2000
sg16
(F0.0052350000000000001
F1.4810000000000001e-05
S'pb'
tp1215
sS'maxCut'
p1216
F10000000000
sg19
(I46215
I3785
tp1217
stRp1218
sS'M800'
p1219
g1
(g2
g3
(dp1220
S'minCut'
p1221
F800
sg16
(F0.039699999999999999
F0.0001132
S'pb'
tp1222
sS'maxCut'
p1223
F1300
sg19
(I30292
I19708
tp1224
stRp1225
sS'M1300'
p1226
g1
(g2
g3
(dp1227
S'minCut'
p1228
F1300
sg16
(F0.01423
F4.0009999999999998e-05
S'pb'
tp1229
sS'maxCut'
p1230
F2000
sg19
(I29896
I20104
tp1231
stRp1232
stRp1233
sS'LR'
p1234
g1
(g2
g3
(dp1235
S'M300'
p1236
g1
(g2
g3
(dp1237
S'minCut'
p1238
F300
sg16
(F0.67989999999999995
F0.0015820000000000001
S'pb'
tp1239
sS'maxCut'
p1240
F800
sg19
(I42785
I7215
tp1241
stRp1242
sS'M800'
p1243
g1
(g2
g3
(dp1244
S'minCut'
p1245
F800
sg16
(F0.059720000000000002
F0.00014109999999999999
S'pb'
tp1246
sS'maxCut'
p1247
F1300
sg19
(I27805
I22195
tp1248
stRp1249
sS'M1300'
p1250
g1
(g2
g3
(dp1251
S'minCut'
p1252
F1300
sg16
(F0.024979999999999999
F6.6190000000000002e-05
S'pb'
tp1253
sS'maxCut'
p1254
F10000000000
sg19
(I47071
I2929
tp1255
stRp1256
stRp1257
sS'RR'
p1258
g1
(g2
g3
(dp1259
S'M300'
p1260
g1
(g2
g3
(dp1261
S'minCut'
p1262
F300
sg16
(F0.63729999999999998
F0.0015759999999999999
S'pb'
tp1263
sS'maxCut'
p1264
F800
sg19
(I43952
I6048
tp1265
stRp1266
sS'M800'
p1267
g1
(g2
g3
(dp1268
S'minCut'
p1269
F800
sg16
(F0.039800000000000002
F0.0001137
S'pb'
tp1270
sS'maxCut'
p1271
F1300
sg19
(I30494
I19506
tp1272
stRp1273
sS'M1300'
p1274
g1
(g2
g3
(dp1275
S'minCut'
p1276
F1300
sg16
(F0.014189999999999999
F3.9919999999999997e-05
S'pb'
tp1277
sS'maxCut'
p1278
F10000000000
sg19
(I46947
I3053
tp1279
stRp1280
stRp1281
stRp1282
stRp1283
sS'Lam100k'
p1284
g1
(g2
g3
(dp1285
S'Des'
p1286
g1
(g2
g3
(dp1287
S'LL'
p1288
g1
(g2
g3
(dp1289
S'M300'
p1290
g1
(g2
g3
(dp1291
S'minCut'
p1292
F300
sg16
(F0.55720000000000003
F0.001389
S'pb'
tp1293
sS'maxCut'
p1294
F800
sg19
(I45520
I4480
tp1295
stRp1296
sS'M800'
p1297
g1
(g2
g3
(dp1298
S'minCut'
p1299
F800
sg16
(F0.013429999999999999
F3.4079999999999999e-05
S'pb'
tp1300
sS'maxCut'
p1301
F1300
sg19
(I40706
I9294
tp1302
stRp1303
sS'M1300'
p1304
g1
(g2
g3
(dp1305
S'minCut'
p1306
F1300
sg16
(F0.001519
F3.9330000000000003e-06
S'pb'
tp1307
sS'maxCut'
p1308
F10000000000
sg19
(I42858
I4642
tp1309
stRp1310
stRp1311
sS'LR'
p1312
g1
(g2
g3
(dp1313
S'M300'
p1314
g1
(g2
g3
(dp1315
S'minCut'
p1316
F300
sg16
(F0.55889999999999995
F0.001408
S'pb'
tp1317
sS'maxCut'
p1318
F800
sg19
(I45038
I4462
tp1319
stRp1320
sS'M800'
p1321
g1
(g2
g3
(dp1322
S'minCut'
p1323
F800
sg16
(F0.01345
F3.4650000000000002e-05
S'pb'
tp1324
sS'maxCut'
p1325
F1300
sg19
(I39388
I9112
tp1326
stRp1327
sS'M1300'
p1328
g1
(g2
g3
(dp1329
S'minCut'
p1330
F1300
sg16
(F0.001523
F3.8349999999999997e-06
S'pb'
tp1331
sS'maxCut'
p1332
F10000000000
sg19
(I45041
I4959
tp1333
stRp1334
stRp1335
sS'RR'
p1336
g1
(g2
g3
(dp1337
S'M300'
p1338
g1
(g2
g3
(dp1339
S'minCut'
p1340
F300
sg16
(F0.55659999999999998
F0.0013910000000000001
S'pb'
tp1341
sS'maxCut'
p1342
F800
sg19
(I45335
I4665
tp1343
stRp1344
sS'M800'
p1345
g1
(g2
g3
(dp1346
S'minCut'
p1347
F800
sg16
(F0.0134
F3.4060000000000003e-05
S'pb'
tp1348
sS'maxCut'
p1349
F1300
sg19
(I40408
I9592
tp1350
stRp1351
sS'M1300'
p1352
g1
(g2
g3
(dp1353
S'minCut'
p1354
F1300
sg16
(F0.001524
F3.8399999999999997e-06
S'pb'
tp1355
sS'maxCut'
p1356
F10000000000
sg19
(I45086
I4914
tp1357
stRp1358
stRp1359
stRp1360
sS'Con'
p1361
g1
(g2
g3
(dp1362
S'LL'
p1363
g1
(g2
g3
(dp1364
S'M300'
p1365
g1
(g2
g3
(dp1366
S'minCut'
p1367
F300
sg16
(F0.55910000000000004
F0.0013979999999999999
S'pb'
tp1368
sS'maxCut'
p1369
F800
sg19
(I45432
I4568
tp1370
stRp1371
sS'M800'
p1372
g1
(g2
g3
(dp1373
S'minCut'
p1374
F800
sg16
(F0.01345
F3.4230000000000003e-05
S'pb'
tp1375
sS'maxCut'
p1376
F1300
sg19
(I40261
I9239
tp1377
stRp1378
sS'M1300'
p1379
g1
(g2
g3
(dp1380
S'minCut'
p1381
F1300
sg16
(F0.001526
F3.8419999999999998e-06
S'pb'
tp1382
sS'maxCut'
p1383
F2000
sg19
(I40498
I9502
tp1384
stRp1385
stRp1386
sS'LR'
p1387
g1
(g2
g3
(dp1388
S'M300'
p1389
g1
(g2
g3
(dp1390
S'minCut'
p1391
F300
sg16
(F0.55940000000000001
F0.001402
S'pb'
tp1392
sS'maxCut'
p1393
F800
sg19
(I45547
I4453
tp1394
stRp1395
sS'M800'
p1396
g1
(g2
g3
(dp1397
S'minCut'
p1398
F800
sg16
(F0.55940000000000001
F0.001402
S'pb'
tp1399
sS'maxCut'
p1400
F1300
sg19
(I979
I49021
tp1401
stRp1402
sS'M1300'
p1403
g1
(g2
g3
(dp1404
S'minCut'
p1405
F1300
sg16
(F0.001519
F3.8240000000000001e-06
S'pb'
tp1406
sS'maxCut'
p1407
F10000000000
sg19
(I45043
I4957
tp1408
stRp1409
stRp1410
sS'RR'
p1411
g1
(g2
g3
(dp1412
S'M300'
p1413
g1
(g2
g3
(dp1414
S'minCut'
p1415
F300
sg16
(F0.55679999999999996
F0.0013929999999999999
S'pb'
tp1416
sS'maxCut'
p1417
F800
sg19
(I45511
I4489
tp1418
stRp1419
sS'M800'
p1420
g1
(g2
g3
(dp1421
S'minCut'
p1422
F800
sg16
(F0.01337
F3.4310000000000002e-05
S'pb'
tp1423
sS'maxCut'
p1424
F1300
sg19
(I39851
I9149
tp1425
stRp1426
sS'M1300'
p1427
g1
(g2
g3
(dp1428
S'minCut'
p1429
F1300
sg16
(F0.001516
F3.8089999999999999e-06
S'pb'
tp1430
sS'maxCut'
p1431
F10000000000
sg19
(I45193
I4807
tp1432
stRp1433
stRp1434
stRp1435
stRp1436
sS'Lam1'
p1437
g1
(g2
g3
(dp1438
S'Des'
p1439
g1
(g2
g3
(dp1440
S'LL'
p1441
g1
(g2
g3
(dp1442
S'M300'
p1443
g1
(g2
g3
(dp1444
S'minCut'
p1445
F300
sg16
(F364.80000000000001
F0.92269999999999996
S'pb'
tp1446
sS'maxCut'
p1447
F800
sg19
(I21867
I28133
tp1448
stRp1449
sS'M800'
p1450
g1
(g2
g3
(dp1451
S'minCut'
p1452
F800
sg16
(F207.19999999999999
F0.52470000000000006
S'pb'
tp1453
sS'maxCut'
p1454
F1300
sg19
(I21621
I28379
tp1455
stRp1456
sS'M1300'
p1457
g1
(g2
g3
(dp1458
S'minCut'
p1459
F1300
sg16
(F116.5
F0.31929999999999997
S'pb'
tp1460
sS'maxCut'
p1461
F10000000000
sg19
(I45828
I2588
tp1462
stRp1463
stRp1464
sS'LR'
p1465
g1
(g2
g3
(dp1466
S'M300'
p1467
g1
(g2
g3
(dp1468
S'minCut'
p1469
F300
sg16
(F733.29999999999995
F1.8819999999999999
S'pb'
tp1470
sS'maxCut'
p1471
F800
sg19
(I21209
I27573
tp1472
stRp1473
sS'M800'
p1474
g1
(g2
g3
(dp1475
S'minCut'
p1476
F800
sg16
(F414.39999999999998
F1.05
S'pb'
tp1477
sS'maxCut'
p1478
F1300
sg19
(I21618
I28382
tp1479
stRp1480
sS'M1300'
p1481
g1
(g2
g3
(dp1482
S'minCut'
p1483
F1300
sg16
(F232.59999999999999
F0.63160000000000005
S'pb'
tp1484
sS'maxCut'
p1485
F10000000000
sg19
(I46615
I2585
tp1486
stRp1487
stRp1488
sS'RR'
p1489
g1
(g2
g3
(dp1490
S'M300'
p1491
g1
(g2
g3
(dp1492
S'minCut'
p1493
F300
sg16
(F364.60000000000002
F0.93220000000000003
S'pb'
tp1494
sS'maxCut'
p1495
F800
sg19
(I21525
I27675
tp1496
stRp1497
sS'M800'
p1498
g1
(g2
g3
(dp1499
S'minCut'
p1500
F800
sg16
(F207.40000000000001
F0.52359999999999995
S'pb'
tp1501
sS'maxCut'
p1502
F1300
sg19
(I21306
I28694
tp1503
stRp1504
sS'M1300'
p1505
g1
(g2
g3
(dp1506
S'minCut'
p1507
F1300
sg16
(F115.90000000000001
F0.32129999999999997
S'pb'
tp1508
sS'maxCut'
p1509
F10000000000
sg19
(I45111
I2459
tp1510
stRp1511
stRp1512
stRp1513
sS'Con'
p1514
g1
(g2
g3
(dp1515
S'LL'
p1516
g1
(g2
g3
(dp1517
S'M300'
p1518
g1
(g2
g3
(dp1519
S'minCut'
p1520
F300
sg16
(F372.69999999999999
F0.93940000000000001
S'pb'
tp1521
sS'maxCut'
p1522
F800
sg19
(I22317
I27683
tp1523
stRp1524
sS'M2000'
p1525
g1
(g2
g3
(dp1526
S'minCut'
p1527
F2000
sg16
(F49.840000000000003
F0.14180000000000001
S'pb'
tp1528
sS'maxCut'
p1529
F10000000000
sg19
(I46288
I3712
tp1530
stRp1531
sS'M800'
p1532
g1
(g2
g3
(dp1533
S'minCut'
p1534
F800
sg16
(F208.80000000000001
F0.54149999999999998
S'pb'
tp1535
sS'maxCut'
p1536
F1300
sg19
(I20683
I26853
tp1537
stRp1538
sS'M1300'
p1539
g1
(g2
g3
(dp1540
S'minCut'
p1541
F1300
sg16
(F116.8
F0.31440000000000001
S'pb'
tp1542
sS'maxCut'
p1543
F2000
sg19
(I27571
I22429
tp1544
stRp1545
stRp1546
sS'LR'
p1547
g1
(g2
g3
(dp1548
S'M300'
p1549
g1
(g2
g3
(dp1550
S'minCut'
p1551
F300
sg16
(F742.20000000000005
F1.875
S'pb'
tp1552
sS'maxCut'
p1553
F800
sg19
(I22081
I27919
tp1554
stRp1555
sS'M800'
p1556
g1
(g2
g3
(dp1557
S'minCut'
p1558
F800
sg16
(F417
F1.052
S'pb'
tp1559
sS'maxCut'
p1560
F1300
sg19
(I21717
I28283
tp1561
stRp1562
sS'M1300'
p1563
g1
(g2
g3
(dp1564
S'minCut'
p1565
F1300
sg16
(F233.5
F0.63949999999999996
S'pb'
tp1566
sS'maxCut'
p1567
F10000000000
sg19
(I46159
I2551
tp1568
stRp1569
stRp1570
sS'RR'
p1571
g1
(g2
g3
(dp1572
S'M300'
p1573
g1
(g2
g3
(dp1574
S'minCut'
p1575
F300
sg16
(F373.19999999999999
F0.96589999999999998
S'pb'
tp1576
sS'maxCut'
p1577
F800
sg19
(I21450
I26070
tp1578
stRp1579
sS'M800'
p1580
g1
(g2
g3
(dp1581
S'minCut'
p1582
F800
sg16
(F209
F0.53200000000000003
S'pb'
tp1583
sS'maxCut'
p1584
F1300
sg19
(I21515
I28485
tp1585
stRp1586
sS'M1300'
p1587
g1
(g2
g3
(dp1588
S'minCut'
p1589
F1300
sg16
(F116.7
F0.31359999999999999
S'pb'
tp1590
sS'maxCut'
p1591
F10000000000
sg19
(I47384
I2616
tp1592
stRp1593
stRp1594
stRp1595
stRp1596
sS'Lam16'
p1597
g1
(g2
g3
(dp1598
S'Des'
p1599
g1
(g2
g3
(dp1600
S'LL'
p1601
g1
(g2
g3
(dp1602
S'M300'
p1603
g1
(g2
g3
(dp1604
S'minCut'
p1605
F300
sg16
(F0.54869999999999997
F0.001372
S'pb'
tp1606
sS'maxCut'
p1607
F800
sg19
(I45496
I4504
tp1608
stRp1609
sS'M800'
p1610
g1
(g2
g3
(dp1611
S'minCut'
p1612
F800
sg16
(F0.013769999999999999
F3.4860000000000002e-05
S'pb'
tp1613
sS'maxCut'
p1614
F1300
sg19
(I36907
I11695
tp1615
stRp1616
sS'M1300'
p1617
g1
(g2
g3
(dp1618
S'minCut'
p1619
F1300
sg16
(F0.0024039999999999999
F6.2230000000000004e-06
S'pb'
tp1620
sS'maxCut'
p1621
F10000000000
sg19
(I46352
I3648
tp1622
stRp1623
stRp1624
sS'LR'
p1625
g1
(g2
g3
(dp1626
S'M300'
p1627
g1
(g2
g3
(dp1628
S'minCut'
p1629
F300
sg16
(F0.55120000000000002
F0.001421
S'pb'
tp1630
sS'maxCut'
p1631
F800
sg19
(I43205
I4455
tp1632
stRp1633
sS'M800'
p1634
g1
(g2
g3
(dp1635
S'minCut'
p1636
F800
sg16
(F0.016330000000000001
F3.8500000000000001e-05
S'pb'
tp1637
sS'maxCut'
p1638
F1300
sg19
(I34985
I15015
tp1639
stRp1640
sS'M1300'
p1641
g1
(g2
g3
(dp1642
S'minCut'
p1643
F1300
sg16
(F0.0039830000000000004
F1.007e-05
S'pb'
tp1644
sS'maxCut'
p1645
F10000000000
sg19
(I46946
I3054
tp1646
stRp1647
stRp1648
sS'RR'
p1649
g1
(g2
g3
(dp1650
S'M300'
p1651
g1
(g2
g3
(dp1652
S'minCut'
p1653
F300
sg16
(F0.55000000000000004
F0.0013749999999999999
S'pb'
tp1654
sS'maxCut'
p1655
F800
sg19
(I45530
I4470
tp1656
stRp1657
sS'M800'
p1658
g1
(g2
g3
(dp1659
S'minCut'
p1660
F800
sg16
(F0.01367
F3.3769999999999997e-05
S'pb'
tp1661
sS'maxCut'
p1662
F1300
sg19
(I37947
I12053
tp1663
stRp1664
sS'M1300'
p1665
g1
(g2
g3
(dp1666
S'minCut'
p1667
F1300
sg16
(F0.0024030000000000002
F6.2999999999999998e-06
S'pb'
tp1668
sS'maxCut'
p1669
F10000000000
sg19
(I44792
I3450
tp1670
stRp1671
stRp1672
stRp1673
sS'Con'
p1674
g1
(g2
g3
(dp1675
S'LL'
p1676
g1
(g2
g3
(dp1677
S'M300'
p1678
g1
(g2
g3
(dp1679
S'minCut'
p1680
F300
sg16
(F0.57979999999999998
F0.001446
S'pb'
tp1681
sS'maxCut'
p1682
F800
sg19
(I45224
I4776
tp1683
stRp1684
sS'M2000'
p1685
g1
(g2
g3
(dp1686
S'minCut'
p1687
F2000
sg16
(F0.001052
F2.8820000000000001e-06
S'pb'
tp1688
sS'maxCut'
p1689
F10000000000
sg19
(I46087
I3913
tp1690
stRp1691
sS'M800'
p1692
g1
(g2
g3
(dp1693
S'minCut'
p1694
F800
sg16
(F0.019019999999999999
F4.8170000000000001e-05
S'pb'
tp1695
sS'maxCut'
p1696
F1300
sg19
(I36980
I13020
tp1697
stRp1698
sS'M1300'
p1699
g1
(g2
g3
(dp1700
S'minCut'
p1701
F1300
sg16
(F0.0039090000000000001
F1.0499999999999999e-05
S'pb'
tp1702
sS'maxCut'
p1703
F2000
sg19
(I34090
I15910
tp1704
stRp1705
stRp1706
sS'LR'
p1707
g1
(g2
g3
(dp1708
S'M300'
p1709
g1
(g2
g3
(dp1710
S'minCut'
p1711
F300
sg16
(F0.58960000000000001
F0.001441
S'pb'
tp1712
sS'maxCut'
p1713
F800
sg19
(I45021
I4979
tp1714
stRp1715
sS'M800'
p1716
g1
(g2
g3
(dp1717
S'minCut'
p1718
F800
sg16
(F0.022349999999999998
F5.2240000000000001e-05
S'pb'
tp1719
sS'maxCut'
p1720
F1300
sg19
(I35031
I14969
tp1721
stRp1722
sS'M1300'
p1723
g1
(g2
g3
(dp1724
S'minCut'
p1725
F1300
sg16
(F0.0056280000000000002
F1.577e-05
S'pb'
tp1726
sS'maxCut'
p1727
F10000000000
sg19
(I46756
I3244
tp1728
stRp1729
stRp1730
sS'RR'
p1731
g1
(g2
g3
(dp1732
S'M300'
p1733
g1
(g2
g3
(dp1734
S'minCut'
p1735
F300
sg16
(F0.58350000000000002
F0.001449
S'pb'
tp1736
sS'maxCut'
p1737
F800
sg19
(I45406
I4594
tp1738
stRp1739
sS'M800'
p1740
g1
(g2
g3
(dp1741
S'minCut'
p1742
F800
sg16
(F0.019120000000000002
F4.8550000000000001e-05
S'pb'
tp1743
sS'maxCut'
p1744
F1300
sg19
(I37075
I12925
tp1745
stRp1746
sS'M1300'
p1747
g1
(g2
g3
(dp1748
S'minCut'
p1749
F1300
sg16
(F0.0039389999999999998
F1.061e-05
S'pb'
tp1750
sS'maxCut'
p1751
F10000000000
sg19
(I46403
I3597
tp1752
stRp1753
stRp1754
stRp1755
stRp1756
sS'Lam28'
p1757
g1
(g2
g3
(dp1758
S'Des'
p1759
g1
(g2
g3
(dp1760
S'LL'
p1761
g1
(g2
g3
(dp1762
S'M300'
p1763
g1
(g2
g3
(dp1764
S'minCut'
p1765
F300
sg16
(F0.55510000000000004
F0.0013910000000000001
S'pb'
tp1766
sS'maxCut'
p1767
F800
sg19
(I45684
I4316
tp1768
stRp1769
sS'M800'
p1770
g1
(g2
g3
(dp1771
S'minCut'
p1772
F800
sg16
(F0.01286
F3.252e-05
S'pb'
tp1773
sS'maxCut'
p1774
F1300
sg19
(I40871
I9129
tp1775
stRp1776
sS'M1300'
p1777
g1
(g2
g3
(dp1778
S'minCut'
p1779
F1300
sg16
(F0.0014549999999999999
F3.6169999999999998e-06
S'pb'
tp1780
sS'maxCut'
p1781
F10000000000
sg19
(I45240
I4760
tp1782
stRp1783
stRp1784
sS'LR'
p1785
g1
(g2
g3
(dp1786
S'M300'
p1787
g1
(g2
g3
(dp1788
S'minCut'
p1789
F300
sg16
(F0.55330000000000001
F0.001395
S'pb'
tp1790
sS'maxCut'
p1791
F800
sg19
(I45658
I4342
tp1792
stRp1793
sS'M800'
p1794
g1
(g2
g3
(dp1795
S'minCut'
p1796
F800
sg16
(F0.01308
F3.3290000000000001e-05
S'pb'
tp1797
sS'maxCut'
p1798
F1300
sg19
(I40413
I9587
tp1799
stRp1800
sS'M1300'
p1801
g1
(g2
g3
(dp1802
S'minCut'
p1803
F1300
sg16
(F0.0016130000000000001
F3.9539999999999998e-06
S'pb'
tp1804
sS'maxCut'
p1805
F10000000000
sg19
(I45618
I4382
tp1806
stRp1807
stRp1808
sS'RR'
p1809
g1
(g2
g3
(dp1810
S'M300'
p1811
g1
(g2
g3
(dp1812
S'minCut'
p1813
F300
sg16
(F0.55520000000000003
F0.00139
S'pb'
tp1814
sS'maxCut'
p1815
F800
sg19
(I45657
I4343
tp1816
stRp1817
sS'M800'
p1818
g1
(g2
g3
(dp1819
S'minCut'
p1820
F800
sg16
(F0.012840000000000001
F3.243e-05
S'pb'
tp1821
sS'maxCut'
p1822
F1300
sg19
(I40695
I9305
tp1823
stRp1824
sS'M1300'
p1825
g1
(g2
g3
(dp1826
S'minCut'
p1827
F1300
sg16
(F0.001454
F3.6210000000000001e-06
S'pb'
tp1828
sS'maxCut'
p1829
F10000000000
sg19
(I45377
I4623
tp1830
stRp1831
stRp1832
stRp1833
sS'Con'
p1834
g1
(g2
g3
(dp1835
S'LL'
p1836
g1
(g2
g3
(dp1837
S'M300'
p1838
g1
(g2
g3
(dp1839
S'minCut'
p1840
F300
sg16
(F0.56579999999999997
F0.0014189999999999999
S'pb'
tp1841
sS'maxCut'
p1842
F800
sg19
(I45614
I4386
tp1843
stRp1844
sS'M2000'
p1845
g1
(g2
g3
(dp1846
S'minCut'
p1847
F2000
sg16
(F0.00029530000000000002
F7.357e-07
S'pb'
tp1848
sS'maxCut'
p1849
F10000000000
sg19
(I45272
I4728
tp1850
stRp1851
sS'M800'
p1852
g1
(g2
g3
(dp1853
S'minCut'
p1854
F800
sg16
(F0.014590000000000001
F3.6999999999999998e-05
S'pb'
tp1855
sS'maxCut'
p1856
F1300
sg19
(I39974
I10026
tp1857
stRp1858
sS'M1300'
p1859
g1
(g2
g3
(dp1860
S'minCut'
p1861
F1300
sg16
(F0.001946
F4.9189999999999998e-06
S'pb'
tp1862
sS'maxCut'
p1863
F2000
sg19
(I38700
I11300
tp1864
stRp1865
stRp1866
sS'LR'
p1867
g1
(g2
g3
(dp1868
S'M300'
p1869
g1
(g2
g3
(dp1870
S'minCut'
p1871
F300
sg16
(F0.56850000000000001
F0.001418
S'pb'
tp1872
sS'maxCut'
p1873
F800
sg19
(I45529
I4471
tp1874
stRp1875
sS'M800'
p1876
g1
(g2
g3
(dp1877
S'minCut'
p1878
F800
sg16
(F0.01508
F3.6690000000000003e-05
S'pb'
tp1879
sS'maxCut'
p1880
F1300
sg19
(I39459
I10541
tp1881
stRp1882
sS'M1300'
p1883
g1
(g2
g3
(dp1884
S'minCut'
p1885
F1300
sg16
(F0.00214
F5.0080000000000002e-06
S'pb'
tp1886
sS'maxCut'
p1887
F10000000000
sg19
(I45851
I4149
tp1888
stRp1889
stRp1890
sS'RR'
p1891
g1
(g2
g3
(dp1892
S'M300'
p1893
g1
(g2
g3
(dp1894
S'minCut'
p1895
F300
sg16
(F0.56459999999999999
F0.0014120000000000001
S'pb'
tp1896
sS'maxCut'
p1897
F800
sg19
(I45516
I4484
tp1898
stRp1899
sS'M800'
p1900
g1
(g2
g3
(dp1901
S'minCut'
p1902
F800
sg16
(F0.01465
F3.7079999999999997e-05
S'pb'
tp1903
sS'maxCut'
p1904
F1300
sg19
(I39915
I10085
tp1905
stRp1906
sS'M1300'
p1907
g1
(g2
g3
(dp1908
S'minCut'
p1909
F1300
sg16
(F0.0019449999999999999
F4.9200000000000003e-06
S'pb'
tp1910
sS'maxCut'
p1911
F10000000000
sg19
(I45599
I4401
tp1912
stRp1913
stRp1914
stRp1915
stRp1916
sS'Lam22'
p1917
g1
(g2
g3
(dp1918
S'Des'
p1919
g1
(g2
g3
(dp1920
S'LL'
p1921
g1
(g2
g3
(dp1922
S'M300'
p1923
g1
(g2
g3
(dp1924
S'minCut'
p1925
F300
sg16
(F0.55069999999999997
F0.0013810000000000001
S'pb'
tp1926
sS'maxCut'
p1927
F800
sg19
(I45681
I4319
tp1928
stRp1929
sS'M800'
p1930
g1
(g2
g3
(dp1931
S'minCut'
p1932
F800
sg16
(F0.012800000000000001
F3.2289999999999997e-05
S'pb'
tp1933
sS'maxCut'
p1934
F1300
sg19
(I40215
I9785
tp1935
stRp1936
sS'M1300'
p1937
g1
(g2
g3
(dp1938
S'minCut'
p1939
F1300
sg16
(F0.001573
F3.8859999999999997e-06
S'pb'
tp1940
sS'maxCut'
p1941
F10000000000
sg19
(I45594
I4406
tp1942
stRp1943
stRp1944
sS'LR'
p1945
g1
(g2
g3
(dp1946
S'M300'
p1947
g1
(g2
g3
(dp1948
S'minCut'
p1949
F300
sg16
(F0.55149999999999999
F0.0013849999999999999
S'pb'
tp1950
sS'maxCut'
p1951
F800
sg19
(I45678
I4322
tp1952
stRp1953
sS'M800'
p1954
g1
(g2
g3
(dp1955
S'minCut'
p1956
F800
sg16
(F0.01353
F3.3819999999999998e-05
S'pb'
tp1957
sS'maxCut'
p1958
F1300
sg19
(I39238
I10762
tp1959
stRp1960
sS'M1300'
p1961
g1
(g2
g3
(dp1962
S'minCut'
p1963
F1300
sg16
(F0.002006
F4.6269999999999999e-06
S'pb'
tp1964
sS'maxCut'
p1965
F10000000000
sg19
(I46081
I3919
tp1966
stRp1967
stRp1968
sS'RR'
p1969
g1
(g2
g3
(dp1970
S'M300'
p1971
g1
(g2
g3
(dp1972
S'minCut'
p1973
F300
sg16
(F0.54900000000000004
F0.0013730000000000001
S'pb'
tp1974
sS'maxCut'
p1975
F800
sg19
(I45597
I4403
tp1976
stRp1977
sS'M800'
p1978
g1
(g2
g3
(dp1979
S'minCut'
p1980
F800
sg16
(F0.012789999999999999
F3.2199999999999997e-05
S'pb'
tp1981
sS'maxCut'
p1982
F1300
sg19
(I40311
I9689
tp1983
stRp1984
sS'M1300'
p1985
g1
(g2
g3
(dp1986
S'minCut'
p1987
F1300
sg16
(F0.00158
F3.9060000000000004e-06
S'pb'
tp1988
sS'maxCut'
p1989
F10000000000
sg19
(I45547
I4453
tp1990
stRp1991
stRp1992
stRp1993
sS'Con'
p1994
g1
(g2
g3
(dp1995
S'LL'
p1996
g1
(g2
g3
(dp1997
S'M300'
p1998
g1
(g2
g3
(dp1999
S'minCut'
p2000
F300
sg16
(F0.57120000000000004
F0.001428
S'pb'
tp2001
sS'maxCut'
p2002
F800
sg19
(I45470
I4530
tp2003
stRp2004
sS'M2000'
p2005
g1
(g2
g3
(dp2006
S'minCut'
p2007
F2000
sg16
(F0.0004548
F1.1769999999999999e-06
S'pb'
tp2008
sS'maxCut'
p2009
F10000000000
sg19
(I45585
I4415
tp2010
stRp2011
sS'M800'
p2012
g1
(g2
g3
(dp2013
S'minCut'
p2014
F800
sg16
(F0.015699999999999999
F3.9700000000000003e-05
S'pb'
tp2015
sS'maxCut'
p2016
F1300
sg19
(I39175
I10825
tp2017
stRp2018
sS'M1300'
p2019
g1
(g2
g3
(dp2020
S'minCut'
p2021
F1300
sg16
(F0.0023930000000000002
F6.1149999999999999e-06
S'pb'
tp2022
sS'maxCut'
p2023
F2000
sg19
(I37163
I12837
tp2024
stRp2025
stRp2026
sS'LR'
p2027
g1
(g2
g3
(dp2028
S'M300'
p2029
g1
(g2
g3
(dp2030
S'minCut'
p2031
F300
sg16
(F0.57189999999999996
F0.0014170000000000001
S'pb'
tp2032
sS'maxCut'
p2033
F800
sg19
(I45371
I4629
tp2034
stRp2035
sS'M800'
p2036
g1
(g2
g3
(dp2037
S'minCut'
p2038
F800
sg16
(F0.016660000000000001
F3.9400000000000002e-05
S'pb'
tp2039
sS'maxCut'
p2040
F1300
sg19
(I38450
I11550
tp2041
stRp2042
sS'M1300'
p2043
g1
(g2
g3
(dp2044
S'minCut'
p2045
F1300
sg16
(F0.0028649999999999999
F6.8940000000000004e-06
S'pb'
tp2046
sS'maxCut'
p2047
F10000000000
sg19
(I46036
I3964
tp2048
stRp2049
stRp2050
sS'RR'
p2051
g1
(g2
g3
(dp2052
S'M300'
p2053
g1
(g2
g3
(dp2054
S'minCut'
p2055
F300
sg16
(F0.57040000000000002
F0.0014289999999999999
S'pb'
tp2056
sS'maxCut'
p2057
F800
sg19
(I45499
I4501
tp2058
stRp2059
sS'M800'
p2060
g1
(g2
g3
(dp2061
S'minCut'
p2062
F800
sg16
(F0.015720000000000001
F3.9730000000000001e-05
S'pb'
tp2063
sS'maxCut'
p2064
F1300
sg19
(I39121
I10879
tp2065
stRp2066
sS'M1300'
p2067
g1
(g2
g3
(dp2068
S'minCut'
p2069
F1300
sg16
(F0.0024020000000000001
F6.1480000000000003e-06
S'pb'
tp2070
sS'maxCut'
p2071
F10000000000
sg19
(I45862
I4138
tp2072
stRp2073
stRp2074
stRp2075
stRp2076
sS'Lam34'
p2077
g1
(g2
g3
(dp2078
S'Des'
p2079
g1
(g2
g3
(dp2080
S'LL'
p2081
g1
(g2
g3
(dp2082
S'M300'
p2083
g1
(g2
g3
(dp2084
S'minCut'
p2085
F300
sg16
(F0.55740000000000001
F0.0013940000000000001
S'pb'
tp2086
sS'maxCut'
p2087
F800
sg19
(I45734
I4266
tp2088
stRp2089
sS'M800'
p2090
g1
(g2
g3
(dp2091
S'minCut'
p2092
F800
sg16
(F0.012970000000000001
F3.2839999999999997e-05
S'pb'
tp2093
sS'maxCut'
p2094
F1300
sg19
(I41005
I8995
tp2095
stRp2096
sS'M1300'
p2097
g1
(g2
g3
(dp2098
S'minCut'
p2099
F1300
sg16
(F0.001436
F3.585e-06
S'pb'
tp2100
sS'maxCut'
p2101
F10000000000
sg19
(I45222
I4778
tp2102
stRp2103
stRp2104
sS'LR'
p2105
g1
(g2
g3
(dp2106
S'M300'
p2107
g1
(g2
g3
(dp2108
S'minCut'
p2109
F300
sg16
(F0.55500000000000005
F0.0013940000000000001
S'pb'
tp2110
sS'maxCut'
p2111
F800
sg19
(I45626
I4374
tp2112
stRp2113
sS'M800'
p2114
g1
(g2
g3
(dp2115
S'minCut'
p2116
F800
sg16
(F0.01307
F3.3470000000000003e-05
S'pb'
tp2117
sS'maxCut'
p2118
F1300
sg19
(I40512
I9488
tp2119
stRp2120
sS'M1300'
p2121
g1
(g2
g3
(dp2122
S'minCut'
p2123
F1300
sg16
(F0.001508
F3.7960000000000002e-06
S'pb'
tp2124
sS'maxCut'
p2125
F10000000000
sg19
(I45467
I4533
tp2126
stRp2127
stRp2128
sS'RR'
p2129
g1
(g2
g3
(dp2130
S'M300'
p2131
g1
(g2
g3
(dp2132
S'minCut'
p2133
F300
sg16
(F0.55459999999999998
F0.001392
S'pb'
tp2134
sS'maxCut'
p2135
F800
sg19
(I45679
I4321
tp2136
stRp2137
sS'M800'
p2138
g1
(g2
g3
(dp2139
S'minCut'
p2140
F800
sg16
(F0.01303
F3.2969999999999998e-05
S'pb'
tp2141
sS'maxCut'
p2142
F1300
sg19
(I40922
I9078
tp2143
stRp2144
sS'M1300'
p2145
g1
(g2
g3
(dp2146
S'minCut'
p2147
F1300
sg16
(F0.001431
F3.563e-06
S'pb'
tp2148
sS'maxCut'
p2149
F10000000000
sg19
(I45253
I4747
tp2150
stRp2151
stRp2152
stRp2153
sS'Con'
p2154
g1
(g2
g3
(dp2155
S'LL'
p2156
g1
(g2
g3
(dp2157
S'M300'
p2158
g1
(g2
g3
(dp2159
S'minCut'
p2160
F300
sg16
(F0.56410000000000005
F0.0014170000000000001
S'pb'
tp2161
sS'maxCut'
p2162
F800
sg19
(I45570
I4430
tp2163
stRp2164
sS'M2000'
p2165
g1
(g2
g3
(dp2166
S'minCut'
p2167
F2000
sg16
(F0.00023570000000000001
F5.8169999999999997e-07
S'pb'
tp2168
sS'maxCut'
p2169
F10000000000
sg19
(I45056
I4944
tp2170
stRp2171
sS'M800'
p2172
g1
(g2
g3
(dp2173
S'minCut'
p2174
F800
sg16
(F0.01421
F3.5849999999999997e-05
S'pb'
tp2175
sS'maxCut'
p2176
F1300
sg19
(I40094
I9906
tp2177
stRp2178
sS'M1300'
p2179
g1
(g2
g3
(dp2180
S'minCut'
p2181
F1300
sg16
(F0.001776
F4.4769999999999997e-06
S'pb'
tp2182
sS'maxCut'
p2183
F2000
sg19
(I39472
I10528
tp2184
stRp2185
stRp2186
sS'LR'
p2187
g1
(g2
g3
(dp2188
S'M300'
p2189
g1
(g2
g3
(dp2190
S'minCut'
p2191
F300
sg16
(F0.56159999999999999
F0.001402
S'pb'
tp2192
sS'maxCut'
p2193
F800
sg19
(I45604
I4396
tp2194
stRp2195
sS'M800'
p2196
g1
(g2
g3
(dp2197
S'minCut'
p2198
F800
sg16
(F0.01439
F3.5620000000000001e-05
S'pb'
tp2199
sS'maxCut'
p2200
F1300
sg19
(I40204
I9796
tp2201
stRp2202
sS'M1300'
p2203
g1
(g2
g3
(dp2204
S'minCut'
p2205
F1300
sg16
(F0.001867
F4.4519999999999999e-06
S'pb'
tp2206
sS'maxCut'
p2207
F10000000000
sg19
(I45519
I4481
tp2208
stRp2209
stRp2210
sS'RR'
p2211
g1
(g2
g3
(dp2212
S'M300'
p2213
g1
(g2
g3
(dp2214
S'minCut'
p2215
F300
sg16
(F0.56389999999999996
F0.001413
S'pb'
tp2216
sS'maxCut'
p2217
F800
sg19
(I45626
I4374
tp2218
stRp2219
sS'M800'
p2220
g1
(g2
g3
(dp2221
S'minCut'
p2222
F800
sg16
(F0.014200000000000001
F3.5960000000000001e-05
S'pb'
tp2223
sS'maxCut'
p2224
F1300
sg19
(I40228
I9772
tp2225
stRp2226
sS'M1300'
p2227
g1
(g2
g3
(dp2228
S'minCut'
p2229
F1300
sg16
(F0.0017719999999999999
F4.4610000000000001e-06
S'pb'
tp2230
sS'maxCut'
p2231
F10000000000
sg19
(I45377
I4623
tp2232
stRp2233
stRp2234
stRp2235
stRp2236
stRp2237
stRp2238
.