ccopy_reg
_reconstructor
p1
(cnesteddict
nesteddict
p2
c__builtin__
dict
p3
(dp4
S'CITo2E'
p5
g1
(g2
g3
(dp6
S'Lam10'
p7
g1
(g2
g3
(dp8
S'Des'
p9
g1
(g2
g3
(dp10
S'LL'
p11
g1
(g2
g3
(dp12
S'M300'
p13
g1
(g2
g3
(dp14
S'minCut'
p15
F300
sS'xsec'
p16
(F0.55320000000000003
F0.0013649999999999999
S'pb'
tp17
sS'maxCut'
p18
F800
sS'cutEfficiency'
p19
(I47655
I2345
tp20
stRp21
sS'M800'
p22
g1
(g2
g3
(dp23
S'minCut'
p24
F800
sg16
(F0.02597
F7.0889999999999994e-05
S'pb'
tp25
sS'maxCut'
p26
F1300
sg19
(I30390
I19610
tp27
stRp28
sS'M1300'
p29
g1
(g2
g3
(dp30
S'minCut'
p31
F1300
sg16
(F0.01026
F2.7549999999999999e-05
S'pb'
tp32
sS'maxCut'
p33
F10000000000
sg19
(I50000
I0
tp34
stRp35
stRp36
sS'LR'
p37
g1
(g2
g3
(dp38
S'M300'
p39
g1
(g2
g3
(dp40
S'minCut'
p41
F300
sg16
(F0.57840000000000003
F0.0014170000000000001
S'pb'
tp42
sS'maxCut'
p43
F800
sg19
(I46234
I3766
tp44
stRp45
sS'M800'
p46
g1
(g2
g3
(dp47
S'minCut'
p48
F800
sg16
(F0.044650000000000002
F0.0001016
S'pb'
tp49
sS'maxCut'
p50
F1300
sg19
(I26697
I23303
tp51
stRp52
sS'M1300'
p53
g1
(g2
g3
(dp54
S'minCut'
p55
F1300
sg16
(F0.02086
F5.3319999999999998e-05
S'pb'
tp56
sS'maxCut'
p57
F10000000000
sg19
(I50000
I0
tp58
stRp59
stRp60
sS'RR'
p61
g1
(g2
g3
(dp62
S'M300'
p63
g1
(g2
g3
(dp64
S'minCut'
p65
F300
sg16
(F0.54910000000000003
F0.001353
S'pb'
tp66
sS'maxCut'
p67
F800
sg19
(I47647
I2353
tp68
stRp69
sS'M800'
p70
g1
(g2
g3
(dp71
S'minCut'
p72
F800
sg16
(F0.025909999999999999
F7.0480000000000003e-05
S'pb'
tp73
sS'maxCut'
p74
F1300
sg19
(I29773
I19727
tp75
stRp76
sS'M1300'
p77
g1
(g2
g3
(dp78
S'minCut'
p79
F1300
sg16
(F0.01025
F2.7399999999999999e-05
S'pb'
tp80
sS'maxCut'
p81
F10000000000
sg19
(I50000
I0
tp82
stRp83
stRp84
stRp85
sS'Con'
p86
g1
(g2
g3
(dp87
S'LL'
p88
g1
(g2
g3
(dp89
S'M300'
p90
g1
(g2
g3
(dp91
S'minCut'
p92
F300
sg16
(F0.63360000000000005
F0.0015629999999999999
S'pb'
tp93
sS'maxCut'
p94
F800
sg19
(I46889
I3111
tp95
stRp96
sS'M2000'
p97
g1
(g2
g3
(dp98
S'minCut'
p99
F2000
sg16
(F0.0052399999999999999
F1.488e-05
S'pb'
tp100
sS'maxCut'
p101
F10000000000
sg19
(I50000
I0
tp102
stRp103
sS'M800'
p104
g1
(g2
g3
(dp105
S'minCut'
p106
F800
sg16
(F0.039489999999999997
F0.0001128
S'pb'
tp107
sS'maxCut'
p108
F1300
sg19
(I32065
I17935
tp109
stRp110
sS'M1300'
p111
g1
(g2
g3
(dp112
S'minCut'
p113
F1300
sg16
(F0.01417
F3.9669999999999998e-05
S'pb'
tp114
sS'maxCut'
p115
F2000
sg19
(I31448
I18552
tp116
stRp117
stRp118
sS'LR'
p119
g1
(g2
g3
(dp120
S'M300'
p121
g1
(g2
g3
(dp122
S'minCut'
p123
F300
sg16
(F0.68000000000000005
F0.001573
S'pb'
tp124
sS'maxCut'
p125
F800
sg19
(I45650
I4350
tp126
stRp127
sS'M800'
p128
g1
(g2
g3
(dp129
S'minCut'
p130
F800
sg16
(F0.059760000000000001
F0.00014119999999999999
S'pb'
tp131
sS'maxCut'
p132
F1300
sg19
(I28878
I21122
tp133
stRp134
sS'M1300'
p135
g1
(g2
g3
(dp136
S'minCut'
p137
F1300
sg16
(F0.025100000000000001
F6.6459999999999997e-05
S'pb'
tp138
sS'maxCut'
p139
F10000000000
sg19
(I50000
I0
tp140
stRp141
stRp142
sS'RR'
p143
g1
(g2
g3
(dp144
S'M300'
p145
g1
(g2
g3
(dp146
S'minCut'
p147
F300
sg16
(F0.63690000000000002
F0.0015709999999999999
S'pb'
tp148
sS'maxCut'
p149
F800
sg19
(I46852
I3148
tp150
stRp151
sS'M800'
p152
g1
(g2
g3
(dp153
S'minCut'
p154
F800
sg16
(F0.039550000000000002
F0.0001131
S'pb'
tp155
sS'maxCut'
p156
F1300
sg19
(I32074
I17926
tp157
stRp158
sS'M1300'
p159
g1
(g2
g3
(dp160
S'minCut'
p161
F1300
sg16
(F0.01417
F4.0000000000000003e-05
S'pb'
tp162
sS'maxCut'
p163
F10000000000
sg19
(I50000
I0
tp164
stRp165
stRp166
stRp167
stRp168
sS'Lam100k'
p169
g1
(g2
g3
(dp170
S'Des'
p171
g1
(g2
g3
(dp172
S'LL'
p173
g1
(g2
g3
(dp174
S'M300'
p175
g1
(g2
g3
(dp176
S'minCut'
p177
F300
sg16
(F0.55689999999999995
F0.001395
S'pb'
tp178
sS'maxCut'
p179
F800
sg19
(I43328
I6672
tp180
stRp181
sS'M800'
p182
g1
(g2
g3
(dp183
S'minCut'
p184
F800
sg16
(F0.01341
F3.4029999999999998e-05
S'pb'
tp185
sS'maxCut'
p186
F1300
sg19
(I38596
I11404
tp187
stRp188
sS'M1300'
p189
g1
(g2
g3
(dp190
S'minCut'
p191
F1300
sg16
(F0.001523
F3.827e-06
S'pb'
tp192
sS'maxCut'
p193
F10000000000
sg19
(I37475
I12525
tp194
stRp195
stRp196
sS'LR'
p197
g1
(g2
g3
(dp198
S'M300'
p199
g1
(g2
g3
(dp200
S'minCut'
p201
F300
sg16
(F0.56220000000000003
F0.001415
S'pb'
tp202
sS'maxCut'
p203
F800
sg19
(I43331
I6669
tp204
stRp205
sS'M800'
p206
g1
(g2
g3
(dp207
S'minCut'
p208
F800
sg16
(F0.013469999999999999
F3.4199999999999998e-05
S'pb'
tp209
sS'maxCut'
p210
F1300
sg19
(I38755
I11245
tp211
stRp212
sS'M1300'
p213
g1
(g2
g3
(dp214
S'minCut'
p215
F1300
sg16
(F0.0015200000000000001
F3.8290000000000001e-06
S'pb'
tp216
sS'maxCut'
p217
F10000000000
sg19
(I43050
I6950
tp218
stRp219
stRp220
sS'RR'
p221
g1
(g2
g3
(dp222
S'M300'
p223
g1
(g2
g3
(dp224
S'minCut'
p225
F300
sg16
(F0.55720000000000003
F0.0013960000000000001
S'pb'
tp226
sS'maxCut'
p227
F800
sg19
(I43333
I6667
tp228
stRp229
sS'M800'
p230
g1
(g2
g3
(dp231
S'minCut'
p232
F800
sg16
(F0.01345
F3.413e-05
S'pb'
tp233
sS'maxCut'
p234
F1300
sg19
(I38902
I11098
tp235
stRp236
sS'M1300'
p237
g1
(g2
g3
(dp238
S'minCut'
p239
F1300
sg16
(F0.001534
F3.8750000000000002e-06
S'pb'
tp240
sS'maxCut'
p241
F10000000000
sg19
(I42944
I7056
tp242
stRp243
stRp244
stRp245
sS'Con'
p246
g1
(g2
g3
(dp247
S'LL'
p248
g1
(g2
g3
(dp249
S'M300'
p250
g1
(g2
g3
(dp251
S'minCut'
p252
F300
sg16
(F0.55759999999999998
F0.001395
S'pb'
tp253
sS'maxCut'
p254
F800
sg19
(I43306
I6694
tp255
stRp256
sS'M2000'
p257
g1
(g2
g3
(dp258
S'minCut'
p259
F2000
sg16
(F0.00015779999999999999
F3.8290000000000002e-07
S'pb'
tp260
sS'maxCut'
p261
F10000000000
sg19
(I42334
I7666
tp262
stRp263
sS'M800'
p264
g1
(g2
g3
(dp265
S'minCut'
p266
F800
sg16
(F0.013429999999999999
F3.4140000000000002e-05
S'pb'
tp267
sS'maxCut'
p268
F1300
sg19
(I38731
I11269
tp269
stRp270
sS'M1300'
p271
g1
(g2
g3
(dp272
S'minCut'
p273
F1300
sg16
(F0.0015299999999999999
F3.8530000000000002e-06
S'pb'
tp274
sS'maxCut'
p275
F2000
sg19
(I38573
I11427
tp276
stRp277
stRp278
sS'LR'
p279
g1
(g2
g3
(dp280
S'M300'
p281
g1
(g2
g3
(dp282
S'minCut'
p283
F300
sg16
(F0.55789999999999995
F0.0013979999999999999
S'pb'
tp284
sS'maxCut'
p285
F800
sg19
(I43432
I6568
tp286
stRp287
sS'M800'
p288
g1
(g2
g3
(dp289
S'minCut'
p290
F800
sg16
(F0.0134
F3.3909999999999999e-05
S'pb'
tp291
sS'maxCut'
p292
F1300
sg19
(I38768
I11232
tp293
stRp294
sS'M1300'
p295
g1
(g2
g3
(dp296
S'minCut'
p297
F1300
sg16
(F0.001524
F3.8430000000000003e-06
S'pb'
tp298
sS'maxCut'
p299
F10000000000
sg19
(I42987
I7013
tp300
stRp301
stRp302
sS'RR'
p303
g1
(g2
g3
(dp304
S'M300'
p305
g1
(g2
g3
(dp306
S'minCut'
p307
F300
sg16
(F0.55549999999999999
F0.001392
S'pb'
tp308
sS'maxCut'
p309
F800
sg19
(I43312
I6688
tp310
stRp311
sS'M800'
p312
g1
(g2
g3
(dp313
S'minCut'
p314
F800
sg16
(F0.01337
F3.383e-05
S'pb'
tp315
sS'maxCut'
p316
F1300
sg19
(I38545
I11455
tp317
stRp318
sS'M1300'
p319
g1
(g2
g3
(dp320
S'minCut'
p321
F1300
sg16
(F0.0015219999999999999
F3.8299999999999998e-06
S'pb'
tp322
sS'maxCut'
p323
F10000000000
sg19
(I43136
I6864
tp324
stRp325
stRp326
stRp327
stRp328
sS'Lam1'
p329
g1
(g2
g3
(dp330
S'Des'
p331
g1
(g2
g3
(dp332
S'LL'
p333
g1
(g2
g3
(dp334
S'M300'
p335
g1
(g2
g3
(dp336
S'minCut'
p337
F300
sg16
(F365.80000000000001
F0.94230000000000003
S'pb'
tp338
sS'maxCut'
p339
F800
sg19
(I20972
I27224
tp340
stRp341
sS'M800'
p342
g1
(g2
g3
(dp343
S'minCut'
p344
F800
sg16
(F207.5
F0.55689999999999995
S'pb'
tp345
sS'maxCut'
p346
F1300
sg19
(I18844
I25516
tp347
stRp348
sS'M1300'
p349
g1
(g2
g3
(dp350
S'minCut'
p351
F1300
sg16
(F116.5
F0.31640000000000001
S'pb'
tp352
sS'maxCut'
p353
F10000000000
sg19
(I49322
I0
tp354
stRp355
stRp356
sS'LR'
p357
g1
(g2
g3
(dp358
S'M300'
p359
g1
(g2
g3
(dp360
S'minCut'
p361
F300
sg16
(F736.10000000000002
F1.893
S'pb'
tp362
sS'maxCut'
p363
F800
sg19
(I21275
I27186
tp364
stRp365
sS'M800'
p366
g1
(g2
g3
(dp367
S'minCut'
p368
F800
sg16
(F416.10000000000002
F1.0589999999999999
S'pb'
tp369
sS'maxCut'
p370
F1300
sg19
(I21288
I28364
tp371
stRp372
sS'M1300'
p373
g1
(g2
g3
(dp374
S'minCut'
p375
F1300
sg16
(F232.69999999999999
F0.62690000000000001
S'pb'
tp376
sS'maxCut'
p377
F10000000000
sg19
(I45732
I4268
tp378
stRp379
stRp380
sS'RR'
p381
g1
(g2
g3
(dp382
S'M300'
p383
g1
(g2
g3
(dp384
S'minCut'
p385
F300
sg16
(F366
F0.95040000000000002
S'pb'
tp386
sS'maxCut'
p387
F800
sg19
(I21095
I26841
tp388
stRp389
sS'M800'
p390
g1
(g2
g3
(dp391
S'minCut'
p392
F800
sg16
(F207.59999999999999
F0.52449999999999997
S'pb'
tp393
sS'maxCut'
p394
F1300
sg19
(I21470
I28530
tp395
stRp396
sS'M1300'
p397
g1
(g2
g3
(dp398
S'minCut'
p399
F1300
sg16
(F116.5
F0.31709999999999999
S'pb'
tp400
sS'maxCut'
p401
F10000000000
sg19
(I48876
I0
tp402
stRp403
stRp404
stRp405
sS'Con'
p406
g1
(g2
g3
(dp407
S'LL'
p408
g1
(g2
g3
(dp409
S'M300'
p410
g1
(g2
g3
(dp411
S'minCut'
p412
F300
sg16
(F373
F0.94320000000000004
S'pb'
tp413
sS'maxCut'
p414
F800
sg19
(I22386
I27614
tp415
stRp416
sS'M2000'
p417
g1
(g2
g3
(dp418
S'minCut'
p419
F2000
sg16
(F49.840000000000003
F0.14480000000000001
S'pb'
tp420
sS'maxCut'
p421
F10000000000
sg19
(I47651
I0
tp422
stRp423
sS'M800'
p424
g1
(g2
g3
(dp425
S'minCut'
p426
F800
sg16
(F208.40000000000001
F0.53010000000000002
S'pb'
tp427
sS'maxCut'
p428
F1300
sg19
(I21426
I28184
tp429
stRp430
sS'M1300'
p431
g1
(g2
g3
(dp432
S'minCut'
p433
F1300
sg16
(F117.09999999999999
F0.31719999999999998
S'pb'
tp434
sS'maxCut'
p435
F2000
sg19
(I26596
I22516
tp436
stRp437
stRp438
sS'LR'
p439
g1
(g2
g3
(dp440
S'M300'
p441
g1
(g2
g3
(dp442
S'minCut'
p443
F300
sg16
(F742
F1.8839999999999999
S'pb'
tp444
sS'maxCut'
p445
F800
sg19
(I22016
I27984
tp446
stRp447
sS'M800'
p448
g1
(g2
g3
(dp449
S'minCut'
p450
F800
sg16
(F415.89999999999998
F1.0589999999999999
S'pb'
tp451
sS'maxCut'
p452
F1300
sg19
(I21333
I27969
tp453
stRp454
sS'M1300'
p455
g1
(g2
g3
(dp456
S'minCut'
p457
F1300
sg16
(F235.19999999999999
F0.76300000000000001
S'pb'
tp458
sS'maxCut'
p459
F10000000000
sg19
(I31800
I2863
tp460
stRp461
stRp462
sS'RR'
p463
g1
(g2
g3
(dp464
S'M300'
p465
g1
(g2
g3
(dp466
S'minCut'
p467
F300
sg16
(F373.39999999999998
F0.94530000000000003
S'pb'
tp468
sS'maxCut'
p469
F800
sg19
(I22256
I27372
tp470
stRp471
sS'M800'
p472
g1
(g2
g3
(dp473
S'minCut'
p474
F800
sg16
(F209.69999999999999
F0.53139999999999998
S'pb'
tp475
sS'maxCut'
p476
F1300
sg19
(I21441
I28559
tp477
stRp478
sS'M1300'
p479
g1
(g2
g3
(dp480
S'minCut'
p481
F1300
sg16
(F116.59999999999999
F0.31919999999999998
S'pb'
tp482
sS'maxCut'
p483
F10000000000
sg19
(I44226
I3979
tp484
stRp485
stRp486
stRp487
stRp488
sS'Lam16'
p489
g1
(g2
g3
(dp490
S'Des'
p491
g1
(g2
g3
(dp492
S'LL'
p493
g1
(g2
g3
(dp494
S'M300'
p495
g1
(g2
g3
(dp496
S'minCut'
p497
F300
sg16
(F0.54759999999999998
F0.0013699999999999999
S'pb'
tp498
sS'maxCut'
p499
F800
sg19
(I43083
I6521
tp500
stRp501
sS'M800'
p502
g1
(g2
g3
(dp503
S'minCut'
p504
F800
sg16
(F0.013809999999999999
F3.4980000000000001e-05
S'pb'
tp505
sS'maxCut'
p506
F1300
sg19
(I35337
I13121
tp507
stRp508
sS'M1300'
p509
g1
(g2
g3
(dp510
S'minCut'
p511
F1300
sg16
(F0.0024039999999999999
F6.302e-06
S'pb'
tp512
sS'maxCut'
p513
F10000000000
sg19
(I48325
I0
tp514
stRp515
stRp516
sS'LR'
p517
g1
(g2
g3
(dp518
S'M300'
p519
g1
(g2
g3
(dp520
S'minCut'
p521
F300
sg16
(F0.54990000000000006
F0.00139
S'pb'
tp522
sS'maxCut'
p523
F800
sg19
(I42576
I6798
tp524
stRp525
sS'M800'
p526
g1
(g2
g3
(dp527
S'minCut'
p528
F800
sg16
(F0.01643
F3.8630000000000001e-05
S'pb'
tp529
sS'maxCut'
p530
F1300
sg19
(I33790
I16210
tp531
stRp532
sS'M1300'
p533
g1
(g2
g3
(dp534
S'minCut'
p535
F1300
sg16
(F0.0039760000000000004
F1.007e-05
S'pb'
tp536
sS'maxCut'
p537
F10000000000
sg19
(I45425
I4575
tp538
stRp539
stRp540
sS'RR'
p541
g1
(g2
g3
(dp542
S'M300'
p543
g1
(g2
g3
(dp544
S'minCut'
p545
F300
sg16
(F0.54620000000000002
F0.001369
S'pb'
tp546
sS'maxCut'
p547
F800
sg19
(I43236
I6453
tp548
stRp549
sS'M800'
p550
g1
(g2
g3
(dp551
S'minCut'
p552
F800
sg16
(F0.013650000000000001
F3.4610000000000002e-05
S'pb'
tp553
sS'maxCut'
p554
F1300
sg19
(I34497
I13199
tp555
stRp556
sS'M1300'
p557
g1
(g2
g3
(dp558
S'minCut'
p559
F1300
sg16
(F0.002382
F6.1419999999999998e-06
S'pb'
tp560
sS'maxCut'
p561
F10000000000
sg19
(I44842
I5158
tp562
stRp563
stRp564
stRp565
sS'Con'
p566
g1
(g2
g3
(dp567
S'LL'
p568
g1
(g2
g3
(dp569
S'M300'
p570
g1
(g2
g3
(dp571
S'minCut'
p572
F300
sg16
(F0.57850000000000001
F0.001456
S'pb'
tp573
sS'maxCut'
p574
F800
sg19
(I42331
I6708
tp575
stRp576
sS'M2000'
p577
g1
(g2
g3
(dp578
S'minCut'
p579
F2000
sg16
(F0.001052
F2.9170000000000002e-06
S'pb'
tp580
sS'maxCut'
p581
F10000000000
sg19
(I43432
I5384
tp582
stRp583
sS'M800'
p584
g1
(g2
g3
(dp585
S'minCut'
p586
F800
sg16
(F0.019
F4.799e-05
S'pb'
tp587
sS'maxCut'
p588
F1300
sg19
(I35350
I14650
tp589
stRp590
sS'M1300'
p591
g1
(g2
g3
(dp592
S'minCut'
p593
F1300
sg16
(F0.003954
F1.0669999999999999e-05
S'pb'
tp594
sS'maxCut'
p595
F2000
sg19
(I32937
I17063
tp596
stRp597
stRp598
sS'LR'
p599
g1
(g2
g3
(dp600
S'M300'
p601
g1
(g2
g3
(dp602
S'minCut'
p603
F300
sg16
(F0.5897
F0.001446
S'pb'
tp604
sS'maxCut'
p605
F800
sg19
(I43046
I6954
tp606
stRp607
sS'M800'
p608
g1
(g2
g3
(dp609
S'minCut'
p610
F800
sg16
(F0.022339999999999999
F5.2240000000000001e-05
S'pb'
tp611
sS'maxCut'
p612
F1300
sg19
(I33548
I16452
tp613
stRp614
sS'M1300'
p615
g1
(g2
g3
(dp616
S'minCut'
p617
F1300
sg16
(F0.0056389999999999999
F1.573e-05
S'pb'
tp618
sS'maxCut'
p619
F10000000000
sg19
(I45177
I4823
tp620
stRp621
stRp622
sS'RR'
p623
g1
(g2
g3
(dp624
S'M300'
p625
g1
(g2
g3
(dp626
S'minCut'
p627
F300
sg16
(F0.58599999999999997
F0.001459
S'pb'
tp628
sS'maxCut'
p629
F800
sg19
(I43275
I6725
tp630
stRp631
sS'M800'
p632
g1
(g2
g3
(dp633
S'minCut'
p634
F800
sg16
(F0.01917
F4.9020000000000002e-05
S'pb'
tp635
sS'maxCut'
p636
F1300
sg19
(I34737
I14525
tp637
stRp638
sS'M1300'
p639
g1
(g2
g3
(dp640
S'minCut'
p641
F1300
sg16
(F0.0039189999999999997
F1.0560000000000001e-05
S'pb'
tp642
sS'maxCut'
p643
F10000000000
sg19
(I44440
I5136
tp644
stRp645
stRp646
stRp647
stRp648
sS'Lam28'
p649
g1
(g2
g3
(dp650
S'Des'
p651
g1
(g2
g3
(dp652
S'LL'
p653
g1
(g2
g3
(dp654
S'M300'
p655
g1
(g2
g3
(dp656
S'minCut'
p657
F300
sg16
(F0.55189999999999995
F0.001384
S'pb'
tp658
sS'maxCut'
p659
F800
sg19
(I43607
I6393
tp660
stRp661
sS'M800'
p662
g1
(g2
g3
(dp663
S'minCut'
p664
F800
sg16
(F0.012999999999999999
F3.2969999999999998e-05
S'pb'
tp665
sS'maxCut'
p666
F1300
sg19
(I38852
I11148
tp667
stRp668
sS'M1300'
p669
g1
(g2
g3
(dp670
S'minCut'
p671
F1300
sg16
(F0.001446
F3.613e-06
S'pb'
tp672
sS'maxCut'
p673
F10000000000
sg19
(I42405
I6829
tp674
stRp675
stRp676
sS'LR'
p677
g1
(g2
g3
(dp678
S'M300'
p679
g1
(g2
g3
(dp680
S'minCut'
p681
F300
sg16
(F0.55349999999999999
F0.0013860000000000001
S'pb'
tp682
sS'maxCut'
p683
F800
sg19
(I43473
I6527
tp684
stRp685
sS'M800'
p686
g1
(g2
g3
(dp687
S'minCut'
p688
F800
sg16
(F0.01308
F3.3330000000000001e-05
S'pb'
tp689
sS'maxCut'
p690
F1300
sg19
(I38283
I11717
tp691
stRp692
sS'M1300'
p693
g1
(g2
g3
(dp694
S'minCut'
p695
F1300
sg16
(F0.0016130000000000001
F3.9369999999999997e-06
S'pb'
tp696
sS'maxCut'
p697
F10000000000
sg19
(I43587
I6413
tp698
stRp699
stRp700
sS'RR'
p701
g1
(g2
g3
(dp702
S'M300'
p703
g1
(g2
g3
(dp704
S'minCut'
p705
F300
sg16
(F0.55520000000000003
F0.0013879999999999999
S'pb'
tp706
sS'maxCut'
p707
F800
sg19
(I43534
I6466
tp708
stRp709
sS'M800'
p710
g1
(g2
g3
(dp711
S'minCut'
p712
F800
sg16
(F0.01286
F3.2620000000000003e-05
S'pb'
tp713
sS'maxCut'
p714
F1300
sg19
(I38810
I11190
tp715
stRp716
sS'M1300'
p717
g1
(g2
g3
(dp718
S'minCut'
p719
F1300
sg16
(F0.0014480000000000001
F3.6100000000000002e-06
S'pb'
tp720
sS'maxCut'
p721
F10000000000
sg19
(I42668
I6572
tp722
stRp723
stRp724
stRp725
sS'Con'
p726
g1
(g2
g3
(dp727
S'LL'
p728
g1
(g2
g3
(dp729
S'M300'
p730
g1
(g2
g3
(dp731
S'minCut'
p732
F300
sg16
(F0.56399999999999995
F0.001413
S'pb'
tp733
sS'maxCut'
p734
F800
sg19
(I43531
I6469
tp735
stRp736
sS'M2000'
p737
g1
(g2
g3
(dp738
S'minCut'
p739
F2000
sg16
(F0.00029470000000000001
F7.3630000000000005e-07
S'pb'
tp740
sS'maxCut'
p741
F10000000000
sg19
(I43482
I6518
tp742
stRp743
sS'M800'
p744
g1
(g2
g3
(dp745
S'minCut'
p746
F800
sg16
(F0.014619999999999999
F3.7070000000000003e-05
S'pb'
tp747
sS'maxCut'
p748
F1300
sg19
(I38210
I11790
tp749
stRp750
sS'M1300'
p751
g1
(g2
g3
(dp752
S'minCut'
p753
F1300
sg16
(F0.001949
F4.9119999999999997e-06
S'pb'
tp754
sS'maxCut'
p755
F2000
sg19
(I37351
I12649
tp756
stRp757
stRp758
sS'LR'
p759
g1
(g2
g3
(dp760
S'M300'
p761
g1
(g2
g3
(dp762
S'minCut'
p763
F300
sg16
(F0.56710000000000005
F0.00141
S'pb'
tp764
sS'maxCut'
p765
F800
sg19
(I43488
I6512
tp766
stRp767
sS'M800'
p768
g1
(g2
g3
(dp769
S'minCut'
p770
F800
sg16
(F0.01502
F3.6640000000000002e-05
S'pb'
tp771
sS'maxCut'
p772
F1300
sg19
(I37712
I12288
tp773
stRp774
sS'M1300'
p775
g1
(g2
g3
(dp776
S'minCut'
p777
F1300
sg16
(F0.0021419999999999998
F5.1070000000000004e-06
S'pb'
tp778
sS'maxCut'
p779
F10000000000
sg19
(I42173
I5917
tp780
stRp781
stRp782
sS'RR'
p783
g1
(g2
g3
(dp784
S'M300'
p785
g1
(g2
g3
(dp786
S'minCut'
p787
F300
sg16
(F0.56579999999999997
F0.001415
S'pb'
tp788
sS'maxCut'
p789
F800
sg19
(I43569
I6431
tp790
stRp791
sS'M800'
p792
g1
(g2
g3
(dp793
S'minCut'
p794
F800
sg16
(F0.014630000000000001
F3.6900000000000002e-05
S'pb'
tp795
sS'maxCut'
p796
F1300
sg19
(I38054
I11946
tp797
stRp798
sS'M1300'
p799
g1
(g2
g3
(dp800
S'minCut'
p801
F1300
sg16
(F0.001952
F4.9200000000000003e-06
S'pb'
tp802
sS'maxCut'
p803
F10000000000
sg19
(I43652
I6348
tp804
stRp805
stRp806
stRp807
stRp808
sS'Lam22'
p809
g1
(g2
g3
(dp810
S'Des'
p811
g1
(g2
g3
(dp812
S'LL'
p813
g1
(g2
g3
(dp814
S'M300'
p815
g1
(g2
g3
(dp816
S'minCut'
p817
F300
sg16
(F0.55179999999999996
F0.0013799999999999999
S'pb'
tp818
sS'maxCut'
p819
F800
sg19
(I43561
I6439
tp820
stRp821
sS'M800'
p822
g1
(g2
g3
(dp823
S'minCut'
p824
F800
sg16
(F0.012869999999999999
F3.2610000000000001e-05
S'pb'
tp825
sS'maxCut'
p826
F1300
sg19
(I37966
I11352
tp827
stRp828
sS'M1300'
p829
g1
(g2
g3
(dp830
S'minCut'
p831
F1300
sg16
(F0.001578
F3.8970000000000001e-06
S'pb'
tp832
sS'maxCut'
p833
F10000000000
sg19
(I43642
I6358
tp834
stRp835
stRp836
sS'LR'
p837
g1
(g2
g3
(dp838
S'M300'
p839
g1
(g2
g3
(dp840
S'minCut'
p841
F300
sg16
(F0.55320000000000003
F0.001395
S'pb'
tp842
sS'maxCut'
p843
F800
sg19
(I43447
I6553
tp844
stRp845
sS'M800'
p846
g1
(g2
g3
(dp847
S'minCut'
p848
F800
sg16
(F0.01345
F3.3689999999999998e-05
S'pb'
tp849
sS'maxCut'
p850
F1300
sg19
(I37426
I12574
tp851
stRp852
sS'M1300'
p853
g1
(g2
g3
(dp854
S'minCut'
p855
F1300
sg16
(F0.002006
F4.6380000000000003e-06
S'pb'
tp856
sS'maxCut'
p857
F10000000000
sg19
(I44249
I5751
tp858
stRp859
stRp860
sS'RR'
p861
g1
(g2
g3
(dp862
S'M300'
p863
g1
(g2
g3
(dp864
S'minCut'
p865
F300
sg16
(F0.55300000000000005
F0.001384
S'pb'
tp866
sS'maxCut'
p867
F800
sg19
(I43416
I6584
tp868
stRp869
sS'M800'
p870
g1
(g2
g3
(dp871
S'minCut'
p872
F800
sg16
(F0.012880000000000001
F3.2410000000000003e-05
S'pb'
tp873
sS'maxCut'
p874
F1300
sg19
(I38387
I11613
tp875
stRp876
sS'M1300'
p877
g1
(g2
g3
(dp878
S'minCut'
p879
F1300
sg16
(F0.0015839999999999999
F3.8859999999999997e-06
S'pb'
tp880
sS'maxCut'
p881
F10000000000
sg19
(I43826
I6174
tp882
stRp883
stRp884
stRp885
sS'Con'
p886
g1
(g2
g3
(dp887
S'LL'
p888
g1
(g2
g3
(dp889
S'M300'
p890
g1
(g2
g3
(dp891
S'minCut'
p892
F300
sg16
(F0.56899999999999995
F0.0014289999999999999
S'pb'
tp893
sS'maxCut'
p894
F800
sg19
(I42676
I6574
tp895
stRp896
sS'M2000'
p897
g1
(g2
g3
(dp898
S'minCut'
p899
F2000
sg16
(F0.0010510000000000001
F2.9079999999999999e-06
S'pb'
tp900
sS'maxCut'
p901
F10000000000
sg19
(I43676
I5511
tp902
stRp903
sS'M800'
p904
g1
(g2
g3
(dp905
S'minCut'
p906
F800
sg16
(F0.015599999999999999
F3.9329999999999998e-05
S'pb'
tp907
sS'maxCut'
p908
F1300
sg19
(I37368
I12632
tp909
stRp910
sS'M1300'
p911
g1
(g2
g3
(dp912
S'minCut'
p913
F1300
sg16
(F0.0023900000000000002
F6.1029999999999998e-06
S'pb'
tp914
sS'maxCut'
p915
F2000
sg19
(I35828
I14172
tp916
stRp917
stRp918
sS'LR'
p919
g1
(g2
g3
(dp920
S'M300'
p921
g1
(g2
g3
(dp922
S'minCut'
p923
F300
sg16
(F0.57140000000000002
F0.0014139999999999999
S'pb'
tp924
sS'maxCut'
p925
F800
sg19
(I43341
I6659
tp926
stRp927
sS'M800'
p928
g1
(g2
g3
(dp929
S'minCut'
p930
F800
sg16
(F0.016639999999999999
F3.9350000000000001e-05
S'pb'
tp931
sS'maxCut'
p932
F1300
sg19
(I36543
I13457
tp933
stRp934
sS'M1300'
p935
g1
(g2
g3
(dp936
S'minCut'
p937
F1300
sg16
(F0.0028800000000000002
F6.9299999999999997e-06
S'pb'
tp938
sS'maxCut'
p939
F10000000000
sg19
(I44167
I5492
tp940
stRp941
stRp942
sS'RR'
p943
g1
(g2
g3
(dp944
S'M300'
p945
g1
(g2
g3
(dp946
S'minCut'
p947
F300
sg16
(F0.57030000000000003
F0.0014400000000000001
S'pb'
tp948
sS'maxCut'
p949
F800
sg19
(I42748
I6573
tp950
stRp951
sS'M800'
p952
g1
(g2
g3
(dp953
S'minCut'
p954
F800
sg16
(F0.01575
F3.9820000000000002e-05
S'pb'
tp955
sS'maxCut'
p956
F1300
sg19
(I37362
I12638
tp957
stRp958
sS'M1300'
p959
g1
(g2
g3
(dp960
S'minCut'
p961
F1300
sg16
(F0.002392
F6.263e-06
S'pb'
tp962
sS'maxCut'
p963
F10000000000
sg19
(I41874
I5716
tp964
stRp965
stRp966
stRp967
stRp968
sS'Lam34'
p969
g1
(g2
g3
(dp970
S'Des'
p971
g1
(g2
g3
(dp972
S'LL'
p973
g1
(g2
g3
(dp974
S'M300'
p975
g1
(g2
g3
(dp976
S'minCut'
p977
F300
sg16
(F0.55549999999999999
F0.001397
S'pb'
tp978
sS'maxCut'
p979
F800
sg19
(I43030
I6331
tp980
stRp981
sS'M800'
p982
g1
(g2
g3
(dp983
S'minCut'
p984
F800
sg16
(F0.012999999999999999
F3.2960000000000003e-05
S'pb'
tp985
sS'maxCut'
p986
F1300
sg19
(I38861
I11139
tp987
stRp988
sS'M1300'
p989
g1
(g2
g3
(dp990
S'minCut'
p991
F1300
sg16
(F0.001436
F3.591e-06
S'pb'
tp992
sS'maxCut'
p993
F10000000000
sg19
(I42940
I6763
tp994
stRp995
stRp996
sS'LR'
p997
g1
(g2
g3
(dp998
S'M300'
p999
g1
(g2
g3
(dp1000
S'minCut'
p1001
F300
sg16
(F0.55689999999999995
F0.0013990000000000001
S'pb'
tp1002
sS'maxCut'
p1003
F800
sg19
(I43593
I6407
tp1004
stRp1005
sS'M800'
p1006
g1
(g2
g3
(dp1007
S'minCut'
p1008
F800
sg16
(F0.01311
F3.3590000000000002e-05
S'pb'
tp1009
sS'maxCut'
p1010
F1300
sg19
(I38838
I11162
tp1011
stRp1012
sS'M1300'
p1013
g1
(g2
g3
(dp1014
S'minCut'
p1015
F1300
sg16
(F0.001508
F3.7919999999999999e-06
S'pb'
tp1016
sS'maxCut'
p1017
F10000000000
sg19
(I43402
I6598
tp1018
stRp1019
stRp1020
sS'RR'
p1021
g1
(g2
g3
(dp1022
S'M300'
p1023
g1
(g2
g3
(dp1024
S'minCut'
p1025
F300
sg16
(F0.55269999999999997
F0.001384
S'pb'
tp1026
sS'maxCut'
p1027
F800
sg19
(I43664
I6336
tp1028
stRp1029
sS'M800'
p1030
g1
(g2
g3
(dp1031
S'minCut'
p1032
F800
sg16
(F0.012999999999999999
F3.2979999999999999e-05
S'pb'
tp1033
sS'maxCut'
p1034
F1300
sg19
(I38860
I11140
tp1035
stRp1036
sS'M1300'
p1037
g1
(g2
g3
(dp1038
S'minCut'
p1039
F1300
sg16
(F0.001433
F3.5659999999999998e-06
S'pb'
tp1040
sS'maxCut'
p1041
F10000000000
sg19
(I43132
I6868
tp1042
stRp1043
stRp1044
stRp1045
sS'Con'
p1046
g1
(g2
g3
(dp1047
S'LL'
p1048
g1
(g2
g3
(dp1049
S'M300'
p1050
g1
(g2
g3
(dp1051
S'minCut'
p1052
F300
sg16
(F0.5635
F0.0014139999999999999
S'pb'
tp1053
sS'maxCut'
p1054
F800
sg19
(I43523
I6477
tp1055
stRp1056
sS'M2000'
p1057
g1
(g2
g3
(dp1058
S'minCut'
p1059
F2000
sg16
(F0.00023560000000000001
F5.8650000000000002e-07
S'pb'
tp1060
sS'maxCut'
p1061
F10000000000
sg19
(I42386
I6714
tp1062
stRp1063
sS'M800'
p1064
g1
(g2
g3
(dp1065
S'minCut'
p1066
F800
sg16
(F0.014189999999999999
F3.6390000000000002e-05
S'pb'
tp1067
sS'maxCut'
p1068
F1300
sg19
(I37621
I11329
tp1069
stRp1070
sS'M1300'
p1071
g1
(g2
g3
(dp1072
S'minCut'
p1073
F1300
sg16
(F0.001779
F4.4800000000000003e-06
S'pb'
tp1074
sS'maxCut'
p1075
F2000
sg19
(I37908
I12092
tp1076
stRp1077
stRp1078
sS'LR'
p1079
g1
(g2
g3
(dp1080
S'M300'
p1081
g1
(g2
g3
(dp1082
S'minCut'
p1083
F300
sg16
(F0.56389999999999996
F0.0014009999999999999
S'pb'
tp1084
sS'maxCut'
p1085
F800
sg19
(I43468
I6532
tp1086
stRp1087
sS'M800'
p1088
g1
(g2
g3
(dp1089
S'minCut'
p1090
F800
sg16
(F0.01443
F3.5719999999999997e-05
S'pb'
tp1091
sS'maxCut'
p1092
F1300
sg19
(I38205
I11795
tp1093
stRp1094
sS'M1300'
p1095
g1
(g2
g3
(dp1096
S'minCut'
p1097
F1300
sg16
(F0.001874
F4.5059999999999997e-06
S'pb'
tp1098
sS'maxCut'
p1099
F10000000000
sg19
(I42413
I6319
tp1100
stRp1101
stRp1102
sS'RR'
p1103
g1
(g2
g3
(dp1104
S'M300'
p1105
g1
(g2
g3
(dp1106
S'minCut'
p1107
F300
sg16
(F0.56340000000000001
F0.0014090000000000001
S'pb'
tp1108
sS'maxCut'
p1109
F800
sg19
(I43428
I6572
tp1110
stRp1111
sS'M800'
p1112
g1
(g2
g3
(dp1113
S'minCut'
p1114
F800
sg16
(F0.01417
F3.6069999999999999e-05
S'pb'
tp1115
sS'maxCut'
p1116
F1300
sg19
(I37968
I11279
tp1117
stRp1118
sS'M1300'
p1119
g1
(g2
g3
(dp1120
S'minCut'
p1121
F1300
sg16
(F0.0017750000000000001
F4.4870000000000004e-06
S'pb'
tp1122
sS'maxCut'
p1123
F10000000000
sg19
(I43577
I6423
tp1124
stRp1125
stRp1126
stRp1127
stRp1128
stRp1129
sS'DYTo2E'
p1130
g1
(g2
g3
(dp1131
S'M300'
p1132
g1
(g2
g3
(dp1133
S'minCut'
p1134
F300
sg16
(F78420000000
F19.760000000000002
S'pb'
tp1135
sS'maxCut'
p1136
F800
sg19
(I0
I50000
tp1137
stRp1138
sS'M800'
p1139
g1
(g2
g3
(dp1140
S'minCut'
p1141
F800
sg16
(F78420000000
F0
S'pb'
tp1142
sS'maxCut'
p1143
F1300
sg19
(I0
I50000
tp1144
stRp1145
sS'M1300'
p1146
g1
(g2
g3
(dp1147
S'minCut'
p1148
F1300
sg16
(F78390000000
F0
S'pb'
tp1149
sS'maxCut'
p1150
F10000000000
sg19
(I0
I50000
tp1151
stRp1152
stRp1153
sS'DYTo2Mu'
p1154
g1
(g2
g3
(dp1155
S'M300'
p1156
g1
(g2
g3
(dp1157
S'minCut'
p1158
F300
sg16
(F0.56579999999999997
F0.0014239999999999999
S'pb'
tp1159
sS'maxCut'
p1160
F800
sg19
(I30506
I19494
tp1161
stRp1162
sS'M800'
p1163
g1
(g2
g3
(dp1164
S'minCut'
p1165
F800
sg16
(F0.014189999999999999
F3.608e-05
S'pb'
tp1166
sS'maxCut'
p1167
F1300
sg19
(I29574
I20426
tp1168
stRp1169
sS'M1300'
p1170
g1
(g2
g3
(dp1171
S'minCut'
p1172
F1300
sg16
(F0.0016570000000000001
F4.2180000000000001e-06
S'pb'
tp1173
sS'maxCut'
p1174
F10000000000
sg19
(I33840
I15131
tp1175
stRp1176
stRp1177
sS'CITo2Mu'
p1178
g1
(g2
g3
(dp1179
S'Lam10'
p1180
g1
(g2
g3
(dp1181
S'Des'
p1182
g1
(g2
g3
(dp1183
S'LL'
p1184
g1
(g2
g3
(dp1185
S'M300'
p1186
g1
(g2
g3
(dp1187
S'minCut'
p1188
F300
sg16
(F0.55220000000000002
F0.0013600000000000001
S'pb'
tp1189
sS'maxCut'
p1190
F800
sg19
(I47599
I2401
tp1191
stRp1192
sS'M800'
p1193
g1
(g2
g3
(dp1194
S'minCut'
p1195
F800
sg16
(F0.02605
F7.0909999999999997e-05
S'pb'
tp1196
sS'maxCut'
p1197
F1300
sg19
(I30411
I19589
tp1198
stRp1199
sS'M1300'
p1200
g1
(g2
g3
(dp1201
S'minCut'
p1202
F1300
sg16
(F0.010319999999999999
F2.7889999999999999e-05
S'pb'
tp1203
sS'maxCut'
p1204
F10000000000
sg19
(I50000
I0
tp1205
stRp1206
stRp1207
sS'LR'
p1208
g1
(g2
g3
(dp1209
S'M300'
p1210
g1
(g2
g3
(dp1211
S'minCut'
p1212
F300
sg16
(F0.57779999999999998
F0.0014159999999999999
S'pb'
tp1213
sS'maxCut'
p1214
F800
sg19
(I46138
I3862
tp1215
stRp1216
sS'M800'
p1217
g1
(g2
g3
(dp1218
S'minCut'
p1219
F800
sg16
(F0.059720000000000002
F0.00014109999999999999
S'pb'
tp1220
sS'maxCut'
p1221
F1300
sg19
(I29085
I20915
tp1222
stRp1223
sS'M1300'
p1224
g1
(g2
g3
(dp1225
S'minCut'
p1226
F1300
sg16
(F0.020840000000000001
F5.308e-05
S'pb'
tp1227
sS'maxCut'
p1228
F10000000000
sg19
(I50000
I0
tp1229
stRp1230
stRp1231
sS'RR'
p1232
g1
(g2
g3
(dp1233
S'M300'
p1234
g1
(g2
g3
(dp1235
S'minCut'
p1236
F300
sg16
(F0.54820000000000002
F0.001354
S'pb'
tp1237
sS'maxCut'
p1238
F800
sg19
(I47748
I2252
tp1239
stRp1240
sS'M800'
p1241
g1
(g2
g3
(dp1242
S'minCut'
p1243
F800
sg16
(F0.025829999999999999
F6.9779999999999999e-05
S'pb'
tp1244
sS'maxCut'
p1245
F1300
sg19
(I30182
I19818
tp1246
stRp1247
sS'M1300'
p1248
g1
(g2
g3
(dp1249
S'minCut'
p1250
F1300
sg16
(F0.0103
F2.756e-05
S'pb'
tp1251
sS'maxCut'
p1252
F10000000000
sg19
(I50000
I0
tp1253
stRp1254
stRp1255
stRp1256
sS'Con'
p1257
g1
(g2
g3
(dp1258
S'LL'
p1259
g1
(g2
g3
(dp1260
S'M300'
p1261
g1
(g2
g3
(dp1262
S'minCut'
p1263
F300
sg16
(F0.63109999999999999
F0.001549
S'pb'
tp1264
sS'maxCut'
p1265
F800
sg19
(I46839
I3161
tp1266
stRp1267
sS'M2000'
p1268
g1
(g2
g3
(dp1269
S'minCut'
p1270
F2000
sg16
(F0.0052350000000000001
F1.4810000000000001e-05
S'pb'
tp1271
sS'maxCut'
p1272
F10000000000
sg19
(I50000
I0
tp1273
stRp1274
sS'M800'
p1275
g1
(g2
g3
(dp1276
S'minCut'
p1277
F800
sg16
(F0.039699999999999999
F0.0001132
S'pb'
tp1278
sS'maxCut'
p1279
F1300
sg19
(I31987
I18013
tp1280
stRp1281
sS'M1300'
p1282
g1
(g2
g3
(dp1283
S'minCut'
p1284
F1300
sg16
(F0.01423
F4.0009999999999998e-05
S'pb'
tp1285
sS'maxCut'
p1286
F2000
sg19
(I31659
I18341
tp1287
stRp1288
stRp1289
sS'LR'
p1290
g1
(g2
g3
(dp1291
S'M300'
p1292
g1
(g2
g3
(dp1293
S'minCut'
p1294
F300
sg16
(F0.67989999999999995
F0.0015820000000000001
S'pb'
tp1295
sS'maxCut'
p1296
F800
sg19
(I45641
I4359
tp1297
stRp1298
sS'M800'
p1299
g1
(g2
g3
(dp1300
S'minCut'
p1301
F800
sg16
(F0.059720000000000002
F0.00014109999999999999
S'pb'
tp1302
sS'maxCut'
p1303
F1300
sg19
(I29085
I20915
tp1304
stRp1305
sS'M1300'
p1306
g1
(g2
g3
(dp1307
S'minCut'
p1308
F1300
sg16
(F0.024979999999999999
F6.6190000000000002e-05
S'pb'
tp1309
sS'maxCut'
p1310
F10000000000
sg19
(I50000
I0
tp1311
stRp1312
stRp1313
sS'RR'
p1314
g1
(g2
g3
(dp1315
S'M300'
p1316
g1
(g2
g3
(dp1317
S'minCut'
p1318
F300
sg16
(F0.63729999999999998
F0.0015759999999999999
S'pb'
tp1319
sS'maxCut'
p1320
F800
sg19
(I46953
I3047
tp1321
stRp1322
sS'M800'
p1323
g1
(g2
g3
(dp1324
S'minCut'
p1325
F800
sg16
(F0.039800000000000002
F0.0001137
S'pb'
tp1326
sS'maxCut'
p1327
F1300
sg19
(I32306
I17694
tp1328
stRp1329
sS'M1300'
p1330
g1
(g2
g3
(dp1331
S'minCut'
p1332
F1300
sg16
(F0.014189999999999999
F3.9919999999999997e-05
S'pb'
tp1333
sS'maxCut'
p1334
F10000000000
sg19
(I50000
I0
tp1335
stRp1336
stRp1337
stRp1338
stRp1339
sS'Lam100k'
p1340
g1
(g2
g3
(dp1341
S'Des'
p1342
g1
(g2
g3
(dp1343
S'LL'
p1344
g1
(g2
g3
(dp1345
S'M300'
p1346
g1
(g2
g3
(dp1347
S'minCut'
p1348
F300
sg16
(F0.55720000000000003
F0.001389
S'pb'
tp1349
sS'maxCut'
p1350
F800
sg19
(I45520
I4480
tp1351
stRp1352
sS'M800'
p1353
g1
(g2
g3
(dp1354
S'minCut'
p1355
F800
sg16
(F0.013429999999999999
F3.4079999999999999e-05
S'pb'
tp1356
sS'maxCut'
p1357
F1300
sg19
(I40706
I9294
tp1358
stRp1359
sS'M1300'
p1360
g1
(g2
g3
(dp1361
S'minCut'
p1362
F1300
sg16
(F0.001519
F3.9330000000000003e-06
S'pb'
tp1363
sS'maxCut'
p1364
F10000000000
sg19
(I42858
I4642
tp1365
stRp1366
stRp1367
sS'LR'
p1368
g1
(g2
g3
(dp1369
S'M300'
p1370
g1
(g2
g3
(dp1371
S'minCut'
p1372
F300
sg16
(F0.55889999999999995
F0.001408
S'pb'
tp1373
sS'maxCut'
p1374
F800
sg19
(I45038
I4462
tp1375
stRp1376
sS'M800'
p1377
g1
(g2
g3
(dp1378
S'minCut'
p1379
F800
sg16
(F0.01345
F3.4650000000000002e-05
S'pb'
tp1380
sS'maxCut'
p1381
F1300
sg19
(I39388
I9112
tp1382
stRp1383
sS'M1300'
p1384
g1
(g2
g3
(dp1385
S'minCut'
p1386
F1300
sg16
(F0.001523
F3.8349999999999997e-06
S'pb'
tp1387
sS'maxCut'
p1388
F10000000000
sg19
(I45041
I4959
tp1389
stRp1390
stRp1391
sS'RR'
p1392
g1
(g2
g3
(dp1393
S'M300'
p1394
g1
(g2
g3
(dp1395
S'minCut'
p1396
F300
sg16
(F0.55659999999999998
F0.0013910000000000001
S'pb'
tp1397
sS'maxCut'
p1398
F800
sg19
(I45335
I4665
tp1399
stRp1400
sS'M800'
p1401
g1
(g2
g3
(dp1402
S'minCut'
p1403
F800
sg16
(F0.0134
F3.4060000000000003e-05
S'pb'
tp1404
sS'maxCut'
p1405
F1300
sg19
(I40408
I9592
tp1406
stRp1407
sS'M1300'
p1408
g1
(g2
g3
(dp1409
S'minCut'
p1410
F1300
sg16
(F0.001524
F3.8399999999999997e-06
S'pb'
tp1411
sS'maxCut'
p1412
F10000000000
sg19
(I45086
I4914
tp1413
stRp1414
stRp1415
stRp1416
sS'Con'
p1417
g1
(g2
g3
(dp1418
S'LL'
p1419
g1
(g2
g3
(dp1420
S'M300'
p1421
g1
(g2
g3
(dp1422
S'minCut'
p1423
F300
sg16
(F0.55910000000000004
F0.0013979999999999999
S'pb'
tp1424
sS'maxCut'
p1425
F800
sg19
(I45432
I4568
tp1426
stRp1427
sS'M2000'
p1428
g1
(g2
g3
(dp1429
S'minCut'
p1430
F2000
sg16
(F0.0001582
F3.8270000000000001e-07
S'pb'
tp1431
sS'maxCut'
p1432
F10000000000
sg19
(I50000
I0
tp1433
stRp1434
sS'M800'
p1435
g1
(g2
g3
(dp1436
S'minCut'
p1437
F800
sg16
(F0.01345
F3.4230000000000003e-05
S'pb'
tp1438
sS'maxCut'
p1439
F1300
sg19
(I40261
I9239
tp1440
stRp1441
sS'M1300'
p1442
g1
(g2
g3
(dp1443
S'minCut'
p1444
F1300
sg16
(F0.001526
F3.8419999999999998e-06
S'pb'
tp1445
sS'maxCut'
p1446
F2000
sg19
(I40498
I9502
tp1447
stRp1448
stRp1449
sS'LR'
p1450
g1
(g2
g3
(dp1451
S'M300'
p1452
g1
(g2
g3
(dp1453
S'minCut'
p1454
F300
sg16
(F0.55940000000000001
F0.001402
S'pb'
tp1455
sS'maxCut'
p1456
F800
sg19
(I45547
I4453
tp1457
stRp1458
sS'M800'
p1459
g1
(g2
g3
(dp1460
S'minCut'
p1461
F800
sg16
(F0.01345
F3.4659999999999997e-05
S'pb'
tp1462
sS'maxCut'
p1463
F1300
sg19
(I43013
I5487
tp1464
stRp1465
sS'M1300'
p1466
g1
(g2
g3
(dp1467
S'minCut'
p1468
F1300
sg16
(F0.001519
F3.8240000000000001e-06
S'pb'
tp1469
sS'maxCut'
p1470
F10000000000
sg19
(I45043
I4957
tp1471
stRp1472
stRp1473
sS'RR'
p1474
g1
(g2
g3
(dp1475
S'M300'
p1476
g1
(g2
g3
(dp1477
S'minCut'
p1478
F300
sg16
(F0.55679999999999996
F0.0013929999999999999
S'pb'
tp1479
sS'maxCut'
p1480
F800
sg19
(I45511
I4489
tp1481
stRp1482
sS'M800'
p1483
g1
(g2
g3
(dp1484
S'minCut'
p1485
F800
sg16
(F0.01337
F3.4310000000000002e-05
S'pb'
tp1486
sS'maxCut'
p1487
F1300
sg19
(I39851
I9149
tp1488
stRp1489
sS'M1300'
p1490
g1
(g2
g3
(dp1491
S'minCut'
p1492
F1300
sg16
(F0.001516
F3.8089999999999999e-06
S'pb'
tp1493
sS'maxCut'
p1494
F10000000000
sg19
(I45193
I4807
tp1495
stRp1496
stRp1497
stRp1498
stRp1499
sS'Lam1'
p1500
g1
(g2
g3
(dp1501
S'Des'
p1502
g1
(g2
g3
(dp1503
S'LL'
p1504
g1
(g2
g3
(dp1505
S'M300'
p1506
g1
(g2
g3
(dp1507
S'minCut'
p1508
F300
sg16
(F364.80000000000001
F0.92269999999999996
S'pb'
tp1509
sS'maxCut'
p1510
F800
sg19
(I21867
I28133
tp1511
stRp1512
sS'M800'
p1513
g1
(g2
g3
(dp1514
S'minCut'
p1515
F800
sg16
(F207.19999999999999
F0.52470000000000006
S'pb'
tp1516
sS'maxCut'
p1517
F1300
sg19
(I21621
I28379
tp1518
stRp1519
sS'M1300'
p1520
g1
(g2
g3
(dp1521
S'minCut'
p1522
F1300
sg16
(F116.5
F0.31929999999999997
S'pb'
tp1523
sS'maxCut'
p1524
F10000000000
sg19
(I45828
I2588
tp1525
stRp1526
stRp1527
sS'LR'
p1528
g1
(g2
g3
(dp1529
S'M300'
p1530
g1
(g2
g3
(dp1531
S'minCut'
p1532
F300
sg16
(F733.29999999999995
F1.8819999999999999
S'pb'
tp1533
sS'maxCut'
p1534
F800
sg19
(I21209
I27573
tp1535
stRp1536
sS'M800'
p1537
g1
(g2
g3
(dp1538
S'minCut'
p1539
F800
sg16
(F414.39999999999998
F1.05
S'pb'
tp1540
sS'maxCut'
p1541
F1300
sg19
(I21618
I28382
tp1542
stRp1543
sS'M1300'
p1544
g1
(g2
g3
(dp1545
S'minCut'
p1546
F1300
sg16
(F232.59999999999999
F0.63160000000000005
S'pb'
tp1547
sS'maxCut'
p1548
F10000000000
sg19
(I46615
I2585
tp1549
stRp1550
stRp1551
sS'RR'
p1552
g1
(g2
g3
(dp1553
S'M300'
p1554
g1
(g2
g3
(dp1555
S'minCut'
p1556
F300
sg16
(F364.60000000000002
F0.93220000000000003
S'pb'
tp1557
sS'maxCut'
p1558
F800
sg19
(I21525
I27675
tp1559
stRp1560
sS'M800'
p1561
g1
(g2
g3
(dp1562
S'minCut'
p1563
F800
sg16
(F207.40000000000001
F0.52359999999999995
S'pb'
tp1564
sS'maxCut'
p1565
F1300
sg19
(I21306
I28694
tp1566
stRp1567
sS'M1300'
p1568
g1
(g2
g3
(dp1569
S'minCut'
p1570
F1300
sg16
(F115.90000000000001
F0.32129999999999997
S'pb'
tp1571
sS'maxCut'
p1572
F10000000000
sg19
(I45111
I2459
tp1573
stRp1574
stRp1575
stRp1576
sS'Con'
p1577
g1
(g2
g3
(dp1578
S'LL'
p1579
g1
(g2
g3
(dp1580
S'M300'
p1581
g1
(g2
g3
(dp1582
S'minCut'
p1583
F300
sg16
(F372.69999999999999
F0.93940000000000001
S'pb'
tp1584
sS'maxCut'
p1585
F800
sg19
(I22317
I27683
tp1586
stRp1587
sS'M2000'
p1588
g1
(g2
g3
(dp1589
S'minCut'
p1590
F2000
sg16
(F49.840000000000003
F0.14180000000000001
S'pb'
tp1591
sS'maxCut'
p1592
F10000000000
sg19
(I46288
I3712
tp1593
stRp1594
sS'M800'
p1595
g1
(g2
g3
(dp1596
S'minCut'
p1597
F800
sg16
(F208.80000000000001
F0.54149999999999998
S'pb'
tp1598
sS'maxCut'
p1599
F1300
sg19
(I20683
I26853
tp1600
stRp1601
sS'M1300'
p1602
g1
(g2
g3
(dp1603
S'minCut'
p1604
F1300
sg16
(F116.8
F0.31440000000000001
S'pb'
tp1605
sS'maxCut'
p1606
F2000
sg19
(I27571
I22429
tp1607
stRp1608
stRp1609
sS'LR'
p1610
g1
(g2
g3
(dp1611
S'M300'
p1612
g1
(g2
g3
(dp1613
S'minCut'
p1614
F300
sg16
(F742.20000000000005
F1.875
S'pb'
tp1615
sS'maxCut'
p1616
F800
sg19
(I22081
I27919
tp1617
stRp1618
sS'M800'
p1619
g1
(g2
g3
(dp1620
S'minCut'
p1621
F800
sg16
(F417
F1.052
S'pb'
tp1622
sS'maxCut'
p1623
F1300
sg19
(I21717
I28283
tp1624
stRp1625
sS'M1300'
p1626
g1
(g2
g3
(dp1627
S'minCut'
p1628
F1300
sg16
(F233.5
F0.63949999999999996
S'pb'
tp1629
sS'maxCut'
p1630
F10000000000
sg19
(I46159
I2551
tp1631
stRp1632
stRp1633
sS'RR'
p1634
g1
(g2
g3
(dp1635
S'M300'
p1636
g1
(g2
g3
(dp1637
S'minCut'
p1638
F300
sg16
(F373.19999999999999
F0.96589999999999998
S'pb'
tp1639
sS'maxCut'
p1640
F800
sg19
(I21450
I26070
tp1641
stRp1642
sS'M800'
p1643
g1
(g2
g3
(dp1644
S'minCut'
p1645
F800
sg16
(F209
F0.53200000000000003
S'pb'
tp1646
sS'maxCut'
p1647
F1300
sg19
(I21515
I28485
tp1648
stRp1649
sS'M1300'
p1650
g1
(g2
g3
(dp1651
S'minCut'
p1652
F1300
sg16
(F116.7
F0.31359999999999999
S'pb'
tp1653
sS'maxCut'
p1654
F10000000000
sg19
(I47384
I2616
tp1655
stRp1656
stRp1657
stRp1658
stRp1659
sS'Lam16'
p1660
g1
(g2
g3
(dp1661
S'Des'
p1662
g1
(g2
g3
(dp1663
S'LL'
p1664
g1
(g2
g3
(dp1665
S'M300'
p1666
g1
(g2
g3
(dp1667
S'minCut'
p1668
F300
sg16
(F0.54869999999999997
F0.001372
S'pb'
tp1669
sS'maxCut'
p1670
F800
sg19
(I45496
I4504
tp1671
stRp1672
sS'M800'
p1673
g1
(g2
g3
(dp1674
S'minCut'
p1675
F800
sg16
(F0.013769999999999999
F3.4860000000000002e-05
S'pb'
tp1676
sS'maxCut'
p1677
F1300
sg19
(I36907
I11695
tp1678
stRp1679
sS'M1300'
p1680
g1
(g2
g3
(dp1681
S'minCut'
p1682
F1300
sg16
(F0.0024039999999999999
F6.2230000000000004e-06
S'pb'
tp1683
sS'maxCut'
p1684
F10000000000
sg19
(I46352
I3648
tp1685
stRp1686
stRp1687
sS'LR'
p1688
g1
(g2
g3
(dp1689
S'M300'
p1690
g1
(g2
g3
(dp1691
S'minCut'
p1692
F300
sg16
(F0.55120000000000002
F0.001421
S'pb'
tp1693
sS'maxCut'
p1694
F800
sg19
(I43205
I4455
tp1695
stRp1696
sS'M800'
p1697
g1
(g2
g3
(dp1698
S'minCut'
p1699
F800
sg16
(F0.016330000000000001
F3.8500000000000001e-05
S'pb'
tp1700
sS'maxCut'
p1701
F1300
sg19
(I34985
I15015
tp1702
stRp1703
sS'M1300'
p1704
g1
(g2
g3
(dp1705
S'minCut'
p1706
F1300
sg16
(F0.0039830000000000004
F1.007e-05
S'pb'
tp1707
sS'maxCut'
p1708
F10000000000
sg19
(I46946
I3054
tp1709
stRp1710
stRp1711
sS'RR'
p1712
g1
(g2
g3
(dp1713
S'M300'
p1714
g1
(g2
g3
(dp1715
S'minCut'
p1716
F300
sg16
(F0.55000000000000004
F0.0013749999999999999
S'pb'
tp1717
sS'maxCut'
p1718
F800
sg19
(I45530
I4470
tp1719
stRp1720
sS'M800'
p1721
g1
(g2
g3
(dp1722
S'minCut'
p1723
F800
sg16
(F0.01367
F3.3769999999999997e-05
S'pb'
tp1724
sS'maxCut'
p1725
F1300
sg19
(I37947
I12053
tp1726
stRp1727
sS'M1300'
p1728
g1
(g2
g3
(dp1729
S'minCut'
p1730
F1300
sg16
(F0.0024030000000000002
F6.2999999999999998e-06
S'pb'
tp1731
sS'maxCut'
p1732
F10000000000
sg19
(I44792
I3450
tp1733
stRp1734
stRp1735
stRp1736
sS'Con'
p1737
g1
(g2
g3
(dp1738
S'LL'
p1739
g1
(g2
g3
(dp1740
S'M300'
p1741
g1
(g2
g3
(dp1742
S'minCut'
p1743
F300
sg16
(F0.57979999999999998
F0.001446
S'pb'
tp1744
sS'maxCut'
p1745
F800
sg19
(I48460
I1540
tp1746
stRp1747
sS'M2000'
p1748
g1
(g2
g3
(dp1749
S'minCut'
p1750
F2000
sg16
(F0.001052
F2.8820000000000001e-06
S'pb'
tp1751
sS'maxCut'
p1752
F10000000000
sg19
(I46087
I3913
tp1753
stRp1754
sS'M800'
p1755
g1
(g2
g3
(dp1756
S'minCut'
p1757
F800
sg16
(F0.019019999999999999
F4.8170000000000001e-05
S'pb'
tp1758
sS'maxCut'
p1759
F1300
sg19
(I36980
I13020
tp1760
stRp1761
sS'M1300'
p1762
g1
(g2
g3
(dp1763
S'minCut'
p1764
F1300
sg16
(F0.0039090000000000001
F1.0499999999999999e-05
S'pb'
tp1765
sS'maxCut'
p1766
F2000
sg19
(I34090
I15910
tp1767
stRp1768
stRp1769
sS'LR'
p1770
g1
(g2
g3
(dp1771
S'M300'
p1772
g1
(g2
g3
(dp1773
S'minCut'
p1774
F300
sg16
(F0.58960000000000001
F0.001441
S'pb'
tp1775
sS'maxCut'
p1776
F800
sg19
(I45021
I4979
tp1777
stRp1778
sS'M800'
p1779
g1
(g2
g3
(dp1780
S'minCut'
p1781
F800
sg16
(F0.022349999999999998
F5.2240000000000001e-05
S'pb'
tp1782
sS'maxCut'
p1783
F1300
sg19
(I35031
I14969
tp1784
stRp1785
sS'M1300'
p1786
g1
(g2
g3
(dp1787
S'minCut'
p1788
F1300
sg16
(F0.0056280000000000002
F1.577e-05
S'pb'
tp1789
sS'maxCut'
p1790
F10000000000
sg19
(I46756
I3244
tp1791
stRp1792
stRp1793
sS'RR'
p1794
g1
(g2
g3
(dp1795
S'M300'
p1796
g1
(g2
g3
(dp1797
S'minCut'
p1798
F300
sg16
(F0.58350000000000002
F0.001449
S'pb'
tp1799
sS'maxCut'
p1800
F800
sg19
(I45406
I4594
tp1801
stRp1802
sS'M800'
p1803
g1
(g2
g3
(dp1804
S'minCut'
p1805
F800
sg16
(F0.019120000000000002
F4.8550000000000001e-05
S'pb'
tp1806
sS'maxCut'
p1807
F1300
sg19
(I37075
I12925
tp1808
stRp1809
sS'M1300'
p1810
g1
(g2
g3
(dp1811
S'minCut'
p1812
F1300
sg16
(F0.0039389999999999998
F1.061e-05
S'pb'
tp1813
sS'maxCut'
p1814
F10000000000
sg19
(I46403
I3597
tp1815
stRp1816
stRp1817
stRp1818
stRp1819
sS'Lam28'
p1820
g1
(g2
g3
(dp1821
S'Des'
p1822
g1
(g2
g3
(dp1823
S'LL'
p1824
g1
(g2
g3
(dp1825
S'M300'
p1826
g1
(g2
g3
(dp1827
S'minCut'
p1828
F300
sg16
(F0.55510000000000004
F0.0013910000000000001
S'pb'
tp1829
sS'maxCut'
p1830
F800
sg19
(I45684
I4316
tp1831
stRp1832
sS'M800'
p1833
g1
(g2
g3
(dp1834
S'minCut'
p1835
F800
sg16
(F0.01286
F3.252e-05
S'pb'
tp1836
sS'maxCut'
p1837
F1300
sg19
(I40871
I9129
tp1838
stRp1839
sS'M1300'
p1840
g1
(g2
g3
(dp1841
S'minCut'
p1842
F1300
sg16
(F0.0014549999999999999
F3.6169999999999998e-06
S'pb'
tp1843
sS'maxCut'
p1844
F10000000000
sg19
(I45240
I4760
tp1845
stRp1846
stRp1847
sS'LR'
p1848
g1
(g2
g3
(dp1849
S'M300'
p1850
g1
(g2
g3
(dp1851
S'minCut'
p1852
F300
sg16
(F0.55330000000000001
F0.001395
S'pb'
tp1853
sS'maxCut'
p1854
F800
sg19
(I45658
I4342
tp1855
stRp1856
sS'M800'
p1857
g1
(g2
g3
(dp1858
S'minCut'
p1859
F800
sg16
(F0.01308
F3.3290000000000001e-05
S'pb'
tp1860
sS'maxCut'
p1861
F1300
sg19
(I40413
I9587
tp1862
stRp1863
sS'M1300'
p1864
g1
(g2
g3
(dp1865
S'minCut'
p1866
F1300
sg16
(F0.0016130000000000001
F3.9539999999999998e-06
S'pb'
tp1867
sS'maxCut'
p1868
F10000000000
sg19
(I45618
I4382
tp1869
stRp1870
stRp1871
sS'RR'
p1872
g1
(g2
g3
(dp1873
S'M300'
p1874
g1
(g2
g3
(dp1875
S'minCut'
p1876
F300
sg16
(F0.55520000000000003
F0.00139
S'pb'
tp1877
sS'maxCut'
p1878
F800
sg19
(I45657
I4343
tp1879
stRp1880
sS'M800'
p1881
g1
(g2
g3
(dp1882
S'minCut'
p1883
F800
sg16
(F0.012840000000000001
F3.243e-05
S'pb'
tp1884
sS'maxCut'
p1885
F1300
sg19
(I40695
I9305
tp1886
stRp1887
sS'M1300'
p1888
g1
(g2
g3
(dp1889
S'minCut'
p1890
F1300
sg16
(F0.001454
F3.6210000000000001e-06
S'pb'
tp1891
sS'maxCut'
p1892
F10000000000
sg19
(I45377
I4623
tp1893
stRp1894
stRp1895
stRp1896
sS'Con'
p1897
g1
(g2
g3
(dp1898
S'LL'
p1899
g1
(g2
g3
(dp1900
S'M300'
p1901
g1
(g2
g3
(dp1902
S'minCut'
p1903
F300
sg16
(F0.56579999999999997
F0.0014189999999999999
S'pb'
tp1904
sS'maxCut'
p1905
F800
sg19
(I45614
I4386
tp1906
stRp1907
sS'M2000'
p1908
g1
(g2
g3
(dp1909
S'minCut'
p1910
F2000
sg16
(F0.00029530000000000002
F7.357e-07
S'pb'
tp1911
sS'maxCut'
p1912
F10000000000
sg19
(I45272
I4728
tp1913
stRp1914
sS'M800'
p1915
g1
(g2
g3
(dp1916
S'minCut'
p1917
F800
sg16
(F0.014590000000000001
F3.6999999999999998e-05
S'pb'
tp1918
sS'maxCut'
p1919
F1300
sg19
(I39974
I10026
tp1920
stRp1921
sS'M1300'
p1922
g1
(g2
g3
(dp1923
S'minCut'
p1924
F1300
sg16
(F0.001946
F4.9189999999999998e-06
S'pb'
tp1925
sS'maxCut'
p1926
F2000
sg19
(I38700
I11300
tp1927
stRp1928
stRp1929
sS'LR'
p1930
g1
(g2
g3
(dp1931
S'M300'
p1932
g1
(g2
g3
(dp1933
S'minCut'
p1934
F300
sg16
(F0.56850000000000001
F0.001418
S'pb'
tp1935
sS'maxCut'
p1936
F800
sg19
(I45529
I4471
tp1937
stRp1938
sS'M800'
p1939
g1
(g2
g3
(dp1940
S'minCut'
p1941
F800
sg16
(F0.01508
F3.6690000000000003e-05
S'pb'
tp1942
sS'maxCut'
p1943
F1300
sg19
(I39459
I10541
tp1944
stRp1945
sS'M1300'
p1946
g1
(g2
g3
(dp1947
S'minCut'
p1948
F1300
sg16
(F0.00214
F5.0080000000000002e-06
S'pb'
tp1949
sS'maxCut'
p1950
F10000000000
sg19
(I45851
I4149
tp1951
stRp1952
stRp1953
sS'RR'
p1954
g1
(g2
g3
(dp1955
S'M300'
p1956
g1
(g2
g3
(dp1957
S'minCut'
p1958
F300
sg16
(F0.56459999999999999
F0.0014120000000000001
S'pb'
tp1959
sS'maxCut'
p1960
F800
sg19
(I45516
I4484
tp1961
stRp1962
sS'M800'
p1963
g1
(g2
g3
(dp1964
S'minCut'
p1965
F800
sg16
(F0.01465
F3.7079999999999997e-05
S'pb'
tp1966
sS'maxCut'
p1967
F1300
sg19
(I39915
I10085
tp1968
stRp1969
sS'M1300'
p1970
g1
(g2
g3
(dp1971
S'minCut'
p1972
F1300
sg16
(F0.0019449999999999999
F4.9200000000000003e-06
S'pb'
tp1973
sS'maxCut'
p1974
F10000000000
sg19
(I45599
I4401
tp1975
stRp1976
stRp1977
stRp1978
stRp1979
sS'Lam22'
p1980
g1
(g2
g3
(dp1981
S'Des'
p1982
g1
(g2
g3
(dp1983
S'LL'
p1984
g1
(g2
g3
(dp1985
S'M300'
p1986
g1
(g2
g3
(dp1987
S'minCut'
p1988
F300
sg16
(F0.55069999999999997
F0.0013810000000000001
S'pb'
tp1989
sS'maxCut'
p1990
F800
sg19
(I45681
I4319
tp1991
stRp1992
sS'M800'
p1993
g1
(g2
g3
(dp1994
S'minCut'
p1995
F800
sg16
(F0.012800000000000001
F3.2289999999999997e-05
S'pb'
tp1996
sS'maxCut'
p1997
F1300
sg19
(I40215
I9785
tp1998
stRp1999
sS'M1300'
p2000
g1
(g2
g3
(dp2001
S'minCut'
p2002
F1300
sg16
(F0.001573
F3.8859999999999997e-06
S'pb'
tp2003
sS'maxCut'
p2004
F10000000000
sg19
(I45594
I4406
tp2005
stRp2006
stRp2007
sS'LR'
p2008
g1
(g2
g3
(dp2009
S'M300'
p2010
g1
(g2
g3
(dp2011
S'minCut'
p2012
F300
sg16
(F0.55149999999999999
F0.0013849999999999999
S'pb'
tp2013
sS'maxCut'
p2014
F800
sg19
(I45678
I4322
tp2015
stRp2016
sS'M800'
p2017
g1
(g2
g3
(dp2018
S'minCut'
p2019
F800
sg16
(F0.01353
F3.3819999999999998e-05
S'pb'
tp2020
sS'maxCut'
p2021
F1300
sg19
(I39238
I10762
tp2022
stRp2023
sS'M1300'
p2024
g1
(g2
g3
(dp2025
S'minCut'
p2026
F1300
sg16
(F0.002006
F4.6269999999999999e-06
S'pb'
tp2027
sS'maxCut'
p2028
F10000000000
sg19
(I46081
I3919
tp2029
stRp2030
stRp2031
sS'RR'
p2032
g1
(g2
g3
(dp2033
S'M300'
p2034
g1
(g2
g3
(dp2035
S'minCut'
p2036
F300
sg16
(F0.54900000000000004
F0.0013730000000000001
S'pb'
tp2037
sS'maxCut'
p2038
F800
sg19
(I45597
I4403
tp2039
stRp2040
sS'M800'
p2041
g1
(g2
g3
(dp2042
S'minCut'
p2043
F800
sg16
(F0.012789999999999999
F3.2199999999999997e-05
S'pb'
tp2044
sS'maxCut'
p2045
F1300
sg19
(I40311
I9689
tp2046
stRp2047
sS'M1300'
p2048
g1
(g2
g3
(dp2049
S'minCut'
p2050
F1300
sg16
(F0.00158
F3.9060000000000004e-06
S'pb'
tp2051
sS'maxCut'
p2052
F10000000000
sg19
(I45547
I4453
tp2053
stRp2054
stRp2055
stRp2056
sS'Con'
p2057
g1
(g2
g3
(dp2058
S'LL'
p2059
g1
(g2
g3
(dp2060
S'M300'
p2061
g1
(g2
g3
(dp2062
S'minCut'
p2063
F300
sg16
(F0.57120000000000004
F0.001428
S'pb'
tp2064
sS'maxCut'
p2065
F800
sg19
(I45470
I4530
tp2066
stRp2067
sS'M2000'
p2068
g1
(g2
g3
(dp2069
S'minCut'
p2070
F2000
sg16
(F0.0004548
F1.1769999999999999e-06
S'pb'
tp2071
sS'maxCut'
p2072
F10000000000
sg19
(I45585
I4415
tp2073
stRp2074
sS'M800'
p2075
g1
(g2
g3
(dp2076
S'minCut'
p2077
F800
sg16
(F0.015699999999999999
F3.9700000000000003e-05
S'pb'
tp2078
sS'maxCut'
p2079
F1300
sg19
(I39175
I10825
tp2080
stRp2081
sS'M1300'
p2082
g1
(g2
g3
(dp2083
S'minCut'
p2084
F1300
sg16
(F0.0023930000000000002
F6.1149999999999999e-06
S'pb'
tp2085
sS'maxCut'
p2086
F2000
sg19
(I37163
I12837
tp2087
stRp2088
stRp2089
sS'LR'
p2090
g1
(g2
g3
(dp2091
S'M300'
p2092
g1
(g2
g3
(dp2093
S'minCut'
p2094
F300
sg16
(F0.57189999999999996
F0.0014170000000000001
S'pb'
tp2095
sS'maxCut'
p2096
F800
sg19
(I45371
I4629
tp2097
stRp2098
sS'M800'
p2099
g1
(g2
g3
(dp2100
S'minCut'
p2101
F800
sg16
(F0.016660000000000001
F3.9400000000000002e-05
S'pb'
tp2102
sS'maxCut'
p2103
F1300
sg19
(I38450
I11550
tp2104
stRp2105
sS'M1300'
p2106
g1
(g2
g3
(dp2107
S'minCut'
p2108
F1300
sg16
(F0.0028649999999999999
F6.8940000000000004e-06
S'pb'
tp2109
sS'maxCut'
p2110
F10000000000
sg19
(I46036
I3964
tp2111
stRp2112
stRp2113
sS'RR'
p2114
g1
(g2
g3
(dp2115
S'M300'
p2116
g1
(g2
g3
(dp2117
S'minCut'
p2118
F300
sg16
(F0.57040000000000002
F0.0014289999999999999
S'pb'
tp2119
sS'maxCut'
p2120
F800
sg19
(I45499
I4501
tp2121
stRp2122
sS'M800'
p2123
g1
(g2
g3
(dp2124
S'minCut'
p2125
F800
sg16
(F0.015720000000000001
F3.9730000000000001e-05
S'pb'
tp2126
sS'maxCut'
p2127
F1300
sg19
(I39121
I10879
tp2128
stRp2129
sS'M1300'
p2130
g1
(g2
g3
(dp2131
S'minCut'
p2132
F1300
sg16
(F0.0024020000000000001
F6.1480000000000003e-06
S'pb'
tp2133
sS'maxCut'
p2134
F10000000000
sg19
(I45862
I4138
tp2135
stRp2136
stRp2137
stRp2138
stRp2139
sS'Lam34'
p2140
g1
(g2
g3
(dp2141
S'Des'
p2142
g1
(g2
g3
(dp2143
S'LL'
p2144
g1
(g2
g3
(dp2145
S'M300'
p2146
g1
(g2
g3
(dp2147
S'minCut'
p2148
F300
sg16
(F0.55740000000000001
F0.0013940000000000001
S'pb'
tp2149
sS'maxCut'
p2150
F800
sg19
(I45734
I4266
tp2151
stRp2152
sS'M800'
p2153
g1
(g2
g3
(dp2154
S'minCut'
p2155
F800
sg16
(F0.012970000000000001
F3.2839999999999997e-05
S'pb'
tp2156
sS'maxCut'
p2157
F1300
sg19
(I41005
I8995
tp2158
stRp2159
sS'M1300'
p2160
g1
(g2
g3
(dp2161
S'minCut'
p2162
F1300
sg16
(F0.001436
F3.585e-06
S'pb'
tp2163
sS'maxCut'
p2164
F10000000000
sg19
(I45222
I4778
tp2165
stRp2166
stRp2167
sS'LR'
p2168
g1
(g2
g3
(dp2169
S'M300'
p2170
g1
(g2
g3
(dp2171
S'minCut'
p2172
F300
sg16
(F0.55500000000000005
F0.0013940000000000001
S'pb'
tp2173
sS'maxCut'
p2174
F800
sg19
(I45626
I4374
tp2175
stRp2176
sS'M800'
p2177
g1
(g2
g3
(dp2178
S'minCut'
p2179
F800
sg16
(F0.01307
F3.3470000000000003e-05
S'pb'
tp2180
sS'maxCut'
p2181
F1300
sg19
(I40512
I9488
tp2182
stRp2183
sS'M1300'
p2184
g1
(g2
g3
(dp2185
S'minCut'
p2186
F1300
sg16
(F0.001508
F3.7960000000000002e-06
S'pb'
tp2187
sS'maxCut'
p2188
F10000000000
sg19
(I45467
I4533
tp2189
stRp2190
stRp2191
sS'RR'
p2192
g1
(g2
g3
(dp2193
S'M300'
p2194
g1
(g2
g3
(dp2195
S'minCut'
p2196
F300
sg16
(F0.55459999999999998
F0.001392
S'pb'
tp2197
sS'maxCut'
p2198
F800
sg19
(I45679
I4321
tp2199
stRp2200
sS'M800'
p2201
g1
(g2
g3
(dp2202
S'minCut'
p2203
F800
sg16
(F0.01303
F3.2969999999999998e-05
S'pb'
tp2204
sS'maxCut'
p2205
F1300
sg19
(I40922
I9078
tp2206
stRp2207
sS'M1300'
p2208
g1
(g2
g3
(dp2209
S'minCut'
p2210
F1300
sg16
(F0.001431
F3.563e-06
S'pb'
tp2211
sS'maxCut'
p2212
F10000000000
sg19
(I45253
I4747
tp2213
stRp2214
stRp2215
stRp2216
sS'Con'
p2217
g1
(g2
g3
(dp2218
S'LL'
p2219
g1
(g2
g3
(dp2220
S'M300'
p2221
g1
(g2
g3
(dp2222
S'minCut'
p2223
F300
sg16
(F0.56410000000000005
F0.0014170000000000001
S'pb'
tp2224
sS'maxCut'
p2225
F800
sg19
(I45570
I4430
tp2226
stRp2227
sS'M2000'
p2228
g1
(g2
g3
(dp2229
S'minCut'
p2230
F2000
sg16
(F0.00023570000000000001
F5.8169999999999997e-07
S'pb'
tp2231
sS'maxCut'
p2232
F10000000000
sg19
(I45056
I4944
tp2233
stRp2234
sS'M800'
p2235
g1
(g2
g3
(dp2236
S'minCut'
p2237
F800
sg16
(F0.01421
F3.5849999999999997e-05
S'pb'
tp2238
sS'maxCut'
p2239
F1300
sg19
(I40094
I9906
tp2240
stRp2241
sS'M1300'
p2242
g1
(g2
g3
(dp2243
S'minCut'
p2244
F1300
sg16
(F0.001776
F4.4769999999999997e-06
S'pb'
tp2245
sS'maxCut'
p2246
F2000
sg19
(I39472
I10528
tp2247
stRp2248
stRp2249
sS'LR'
p2250
g1
(g2
g3
(dp2251
S'M300'
p2252
g1
(g2
g3
(dp2253
S'minCut'
p2254
F300
sg16
(F0.56159999999999999
F0.001402
S'pb'
tp2255
sS'maxCut'
p2256
F800
sg19
(I45604
I4396
tp2257
stRp2258
sS'M800'
p2259
g1
(g2
g3
(dp2260
S'minCut'
p2261
F800
sg16
(F0.01439
F3.5620000000000001e-05
S'pb'
tp2262
sS'maxCut'
p2263
F1300
sg19
(I40204
I9796
tp2264
stRp2265
sS'M1300'
p2266
g1
(g2
g3
(dp2267
S'minCut'
p2268
F1300
sg16
(F0.001867
F4.4519999999999999e-06
S'pb'
tp2269
sS'maxCut'
p2270
F10000000000
sg19
(I45519
I4481
tp2271
stRp2272
stRp2273
sS'RR'
p2274
g1
(g2
g3
(dp2275
S'M300'
p2276
g1
(g2
g3
(dp2277
S'minCut'
p2278
F300
sg16
(F0.56389999999999996
F0.001413
S'pb'
tp2279
sS'maxCut'
p2280
F800
sg19
(I45626
I4374
tp2281
stRp2282
sS'M800'
p2283
g1
(g2
g3
(dp2284
S'minCut'
p2285
F800
sg16
(F0.014200000000000001
F3.5960000000000001e-05
S'pb'
tp2286
sS'maxCut'
p2287
F1300
sg19
(I40228
I9772
tp2288
stRp2289
sS'M1300'
p2290
g1
(g2
g3
(dp2291
S'minCut'
p2292
F1300
sg16
(F0.0017719999999999999
F4.4610000000000001e-06
S'pb'
tp2293
sS'maxCut'
p2294
F10000000000
sg19
(I45377
I4623
tp2295
stRp2296
stRp2297
stRp2298
stRp2299
stRp2300
stRp2301
.